ARM GAS  C:\Users\zakis\AppData\Local\Temp\ccllALja.s 			page 1


   1              		.syntax unified
   2              		.cpu cortex-m3
   3              		.fpu softvfp
   4              		.eabi_attribute 20, 1
   5              		.eabi_attribute 21, 1
   6              		.eabi_attribute 23, 3
   7              		.eabi_attribute 24, 1
   8              		.eabi_attribute 25, 1
   9              		.eabi_attribute 26, 1
  10              		.eabi_attribute 30, 1
  11              		.eabi_attribute 34, 1
  12              		.eabi_attribute 18, 4
  13              		.thumb
  14              		.syntax unified
  15              		.file	"error.c"
  16              		.text
  17              	.Ltext0:
  18              		.cfi_sections	.debug_frame
  19              		.section	.text.ERROR_disableRunnable,"ax",%progbits
  20              		.align	2
  21              		.global	ERROR_disableRunnable
  22              		.thumb
  23              		.thumb_func
  24              		.type	ERROR_disableRunnable, %function
  25              	ERROR_disableRunnable:
  26              	.LFB110:
  27              		.file 1 "source\\bsw\\error.c"
   1:source\bsw/error.c **** /**
   2:source\bsw/error.c **** * \file uart.c
   3:source\bsw/error.c **** * \author P. Fromm
   4:source\bsw/error.c **** * \date 8.12.19
   5:source\bsw/error.c **** *
   6:source\bsw/error.c **** * \brief UART wrapper
   7:source\bsw/error.c **** *
   8:source\bsw/error.c **** * \copyright Copyright ©2016
   9:source\bsw/error.c **** * Department of electrical engineering and information technology, Hochschule Darmstadt - Universit
  10:source\bsw/error.c **** * Permission to use, copy, modify, and distribute this software and its documentation for education
  11:source\bsw/error.c **** * (unless permitted by h_da) and official h_da projects, is hereby granted for enrolled students of
  12:source\bsw/error.c **** * this paragraph and the following paragraph appear in all copies, modifications, and distributions
  13:source\bsw/error.c **** * Contact Prof.Dr.-Ing. Peter Fromm, peter.fromm@h-da.de, Birkenweg 8 64295 Darmstadt - GERMANY for
  14:source\bsw/error.c **** *
  15:source\bsw/error.c **** * \warning This software is a PROTOTYPE version and is not designed or intended for use in producti
  16:source\bsw/error.c **** * The user represents and warrants that it will NOT use or redistribute the Software for such purpo
  17:source\bsw/error.c **** * This prototype is for research purposes only. This software is provided "AS IS," without a warran
  18:source\bsw/error.c **** */
  19:source\bsw/error.c **** 
  20:source\bsw/error.c **** /*****************************************************************************/
  21:source\bsw/error.c **** /* Include files                                                             */
  22:source\bsw/error.c **** /*****************************************************************************/
  23:source\bsw/error.c **** 
  24:source\bsw/error.c **** #include "project.h"
  25:source\bsw/error.c **** #include "error.h"
  26:source\bsw/error.c **** 
  27:source\bsw/error.c **** /*****************************************************************************/
  28:source\bsw/error.c **** /* Local pre-processor symbols/macros ('#define')                            */
  29:source\bsw/error.c **** /*****************************************************************************/
  30:source\bsw/error.c **** 
ARM GAS  C:\Users\zakis\AppData\Local\Temp\ccllALja.s 			page 2


  31:source\bsw/error.c **** /*****************************************************************************/
  32:source\bsw/error.c **** /* Global variable definitions (declared in header file with 'extern')       */
  33:source\bsw/error.c **** /*****************************************************************************/
  34:source\bsw/error.c **** 
  35:source\bsw/error.c **** uint8_t runnablesStatus[numberOfRunnables] = {1, 1, 1, 1, 1};
  36:source\bsw/error.c **** 
  37:source\bsw/error.c **** /*****************************************************************************/
  38:source\bsw/error.c **** /* Local type definitions ('typedef')                                        */
  39:source\bsw/error.c **** /*****************************************************************************/
  40:source\bsw/error.c **** 
  41:source\bsw/error.c **** 
  42:source\bsw/error.c **** 
  43:source\bsw/error.c **** /*****************************************************************************/
  44:source\bsw/error.c **** /* Local variable definitions ('static')                                     */
  45:source\bsw/error.c **** /*****************************************************************************/
  46:source\bsw/error.c **** 
  47:source\bsw/error.c **** 
  48:source\bsw/error.c **** 
  49:source\bsw/error.c **** /*****************************************************************************/
  50:source\bsw/error.c **** /* Local function prototypes ('static')                                      */
  51:source\bsw/error.c **** /*****************************************************************************/
  52:source\bsw/error.c **** 
  53:source\bsw/error.c **** 
  54:source\bsw/error.c **** /*****************************************************************************/
  55:source\bsw/error.c **** /* Function implementation - global ('extern') and local ('static')          */
  56:source\bsw/error.c **** /*****************************************************************************/
  57:source\bsw/error.c **** RC_t ERROR_disableRunnable(ERROR_Runnable_t runnable){
  28              		.loc 1 57 0
  29              		.cfi_startproc
  30              		@ args = 0, pretend = 0, frame = 0
  31              		@ frame_needed = 0, uses_anonymous_args = 0
  32              		@ link register save eliminated.
  33              	.LVL0:
  58:source\bsw/error.c ****     
  59:source\bsw/error.c ****     runnablesStatus[runnable] = 0;
  34              		.loc 1 59 0
  35 0000 0023     		movs	r3, #0
  36 0002 024A     		ldr	r2, .L2
  37 0004 1354     		strb	r3, [r2, r0]
  60:source\bsw/error.c ****     return RC_SUCCESS;
  61:source\bsw/error.c **** }
  38              		.loc 1 61 0
  39 0006 1846     		mov	r0, r3
  40              	.LVL1:
  41 0008 7047     		bx	lr
  42              	.L3:
  43 000a 00BF     		.align	2
  44              	.L2:
  45 000c 00000000 		.word	.LANCHOR0
  46              		.cfi_endproc
  47              	.LFE110:
  48              		.size	ERROR_disableRunnable, .-ERROR_disableRunnable
  49              		.section	.text.ERROR_enableRunnable,"ax",%progbits
  50              		.align	2
  51              		.global	ERROR_enableRunnable
  52              		.thumb
  53              		.thumb_func
ARM GAS  C:\Users\zakis\AppData\Local\Temp\ccllALja.s 			page 3


  54              		.type	ERROR_enableRunnable, %function
  55              	ERROR_enableRunnable:
  56              	.LFB111:
  62:source\bsw/error.c **** 
  63:source\bsw/error.c **** RC_t ERROR_enableRunnable(ERROR_Runnable_t runnable){
  57              		.loc 1 63 0
  58              		.cfi_startproc
  59              		@ args = 0, pretend = 0, frame = 0
  60              		@ frame_needed = 0, uses_anonymous_args = 0
  61              		@ link register save eliminated.
  62              	.LVL2:
  64:source\bsw/error.c ****     
  65:source\bsw/error.c ****     runnablesStatus[runnable] = 1;
  63              		.loc 1 65 0
  64 0000 0122     		movs	r2, #1
  65 0002 024B     		ldr	r3, .L5
  66 0004 1A54     		strb	r2, [r3, r0]
  66:source\bsw/error.c ****     return RC_SUCCESS;
  67:source\bsw/error.c **** 
  68:source\bsw/error.c **** }
  67              		.loc 1 68 0
  68 0006 0020     		movs	r0, #0
  69              	.LVL3:
  70 0008 7047     		bx	lr
  71              	.L6:
  72 000a 00BF     		.align	2
  73              	.L5:
  74 000c 00000000 		.word	.LANCHOR0
  75              		.cfi_endproc
  76              	.LFE111:
  77              		.size	ERROR_enableRunnable, .-ERROR_enableRunnable
  78              		.section	.text.ERROR_isRunnableActive,"ax",%progbits
  79              		.align	2
  80              		.global	ERROR_isRunnableActive
  81              		.thumb
  82              		.thumb_func
  83              		.type	ERROR_isRunnableActive, %function
  84              	ERROR_isRunnableActive:
  85              	.LFB112:
  69:source\bsw/error.c **** 
  70:source\bsw/error.c **** boolean_t ERROR_isRunnableActive(ERROR_Runnable_t runnable){
  86              		.loc 1 70 0
  87              		.cfi_startproc
  88              		@ args = 0, pretend = 0, frame = 0
  89              		@ frame_needed = 0, uses_anonymous_args = 0
  90              		@ link register save eliminated.
  91              	.LVL4:
  71:source\bsw/error.c ****     
  72:source\bsw/error.c ****     boolean_t status = FALSE;
  73:source\bsw/error.c ****     
  74:source\bsw/error.c ****     if (runnablesStatus[runnable] == 1){
  92              		.loc 1 74 0
  93 0000 034B     		ldr	r3, .L10
  94 0002 1B5C     		ldrb	r3, [r3, r0]	@ zero_extendqisi2
  95 0004 012B     		cmp	r3, #1
  96 0006 01D1     		bne	.L9
  75:source\bsw/error.c ****         status = TRUE;
ARM GAS  C:\Users\zakis\AppData\Local\Temp\ccllALja.s 			page 4


  97              		.loc 1 75 0
  98 0008 0120     		movs	r0, #1
  99              	.LVL5:
 100 000a 7047     		bx	lr
 101              	.LVL6:
 102              	.L9:
  76:source\bsw/error.c ****     
  77:source\bsw/error.c ****     } else {
  78:source\bsw/error.c ****         status = FALSE;
 103              		.loc 1 78 0
 104 000c 0020     		movs	r0, #0
 105              	.LVL7:
  79:source\bsw/error.c ****     }
  80:source\bsw/error.c ****     return status;
  81:source\bsw/error.c **** }...
 106              		.loc 1 81 0
 107 000e 7047     		bx	lr
 108              	.L11:
 109              		.align	2
 110              	.L10:
 111 0010 00000000 		.word	.LANCHOR0
 112              		.cfi_endproc
 113              	.LFE112:
 114              		.size	ERROR_isRunnableActive, .-ERROR_isRunnableActive
 115              		.global	runnablesStatus
 116              		.data
 117              		.align	2
 118              		.set	.LANCHOR0,. + 0
 119              		.type	runnablesStatus, %object
 120              		.size	runnablesStatus, 5
 121              	runnablesStatus:
 122 0000 01       		.byte	1
 123 0001 01       		.byte	1
 124 0002 01       		.byte	1
 125 0003 01       		.byte	1
 126 0004 01       		.byte	1
 127              		.text
 128              	.Letext0:
 129              		.file 2 "c:\\program files (x86)\\cypress\\psoc creator\\4.4\\psoc creator\\import\\gnu\\arm\\5.4.
 130              		.file 3 "c:\\program files (x86)\\cypress\\psoc creator\\4.4\\psoc creator\\import\\gnu\\arm\\5.4.
 131              		.file 4 "Generated_Source\\PSoC5/ErikaOS_common_ee_types.inc"
 132              		.file 5 "Generated_Source\\PSoC5/ErikaOS_cortex_mx_ee_cpu.inc"
 133              		.file 6 "source\\bsw\\global.h"
 134              		.file 7 "source\\bsw\\error.h"
 135              		.file 8 "Generated_Source\\PSoC5/ErikaOS_ee_oo_intfunc.inc"
 136              		.file 9 "Generated_Source\\PSoC5/ErikaOS_cortex_mx_ee_context.inc"
 137              		.file 10 "Generated_Source\\PSoC5/ErikaOS_common_ee_primitives.inc"
 138              		.file 11 "Generated_Source\\PSoC5/core_cm3.h"