ARM GAS  C:\Users\zakis\AppData\Local\Temp\ccLRojdb.s 			page 1


   1              		.syntax unified
   2              		.cpu cortex-m3
   3              		.fpu softvfp
   4              		.eabi_attribute 20, 1
   5              		.eabi_attribute 21, 1
   6              		.eabi_attribute 23, 3
   7              		.eabi_attribute 24, 1
   8              		.eabi_attribute 25, 1
   9              		.eabi_attribute 26, 1
  10              		.eabi_attribute 30, 1
  11              		.eabi_attribute 34, 1
  12              		.eabi_attribute 18, 4
  13              		.thumb
  14              		.syntax unified
  15              		.file	"rte.c"
  16              		.text
  17              	.Ltext0:
  18              		.cfi_sections	.debug_frame
  19              		.section	.text.RTE_ProcessCyclicTable,"ax",%progbits
  20              		.align	2
  21              		.global	RTE_ProcessCyclicTable
  22              		.thumb
  23              		.thumb_func
  24              		.type	RTE_ProcessCyclicTable, %function
  25              	RTE_ProcessCyclicTable:
  26              	.LFB110:
  27              		.file 1 "source\\rte\\rte.c"
   1:source\rte/rte.c **** /**
   2:source\rte/rte.c **** * \file rte.c
   3:source\rte/rte.c **** * \author P. Fromm
   4:source\rte/rte.c **** * \date 8.12.18
   5:source\rte/rte.c **** *
   6:source\rte/rte.c **** * \brief Runnable dispatcher
   7:source\rte/rte.c **** *
   8:source\rte/rte.c **** * \copyright Copyright ©2016
   9:source\rte/rte.c **** * Department of electrical engineering and information technology, Hochschule Darmstadt - Universit
  10:source\rte/rte.c **** * Permission to use, copy, modify, and distribute this software and its documentation for education
  11:source\rte/rte.c **** * (unless permitted by h_da) and official h_da projects, is hereby granted for enrolled students of
  12:source\rte/rte.c **** * this paragraph and the following paragraph appear in all copies, modifications, and distributions
  13:source\rte/rte.c **** * Contact Prof.Dr.-Ing. Peter Fromm, peter.fromm@h-da.de, Birkenweg 8 64295 Darmstadt - GERMANY for
  14:source\rte/rte.c **** *
  15:source\rte/rte.c **** * \warning This software is a PROTOTYPE version and is not designed or intended for use in producti
  16:source\rte/rte.c **** * The user represents and warrants that it will NOT use or redistribute the Software for such purpo
  17:source\rte/rte.c **** * This prototype is for research purposes only. This software is provided "AS IS," without a warran
  18:source\rte/rte.c **** */
  19:source\rte/rte.c **** 
  20:source\rte/rte.c **** /*****************************************************************************/
  21:source\rte/rte.c **** /* Include files                                                             */
  22:source\rte/rte.c **** /*****************************************************************************/
  23:source\rte/rte.c **** #include "rte.h"
  24:source\rte/rte.c **** 
  25:source\rte/rte.c **** /*****************************************************************************/
  26:source\rte/rte.c **** /* Local pre-processor symbols/macros ('#define')                            */
  27:source\rte/rte.c **** /*****************************************************************************/
  28:source\rte/rte.c **** 
  29:source\rte/rte.c **** /*****************************************************************************/
  30:source\rte/rte.c **** /* Global variable definitions (declared in header file with 'extern')       */
ARM GAS  C:\Users\zakis\AppData\Local\Temp\ccLRojdb.s 			page 2


  31:source\rte/rte.c **** /*****************************************************************************/
  32:source\rte/rte.c **** 
  33:source\rte/rte.c **** /*****************************************************************************/
  34:source\rte/rte.c **** /* Local type definitions ('typedef')                                        */
  35:source\rte/rte.c **** /*****************************************************************************/
  36:source\rte/rte.c **** 
  37:source\rte/rte.c **** /*****************************************************************************/
  38:source\rte/rte.c **** /* Local variable definitions ('static')                                     */
  39:source\rte/rte.c **** /*****************************************************************************/
  40:source\rte/rte.c **** 
  41:source\rte/rte.c **** 
  42:source\rte/rte.c **** 
  43:source\rte/rte.c **** /*****************************************************************************/
  44:source\rte/rte.c **** /* Local function prototypes ('static')                                      */
  45:source\rte/rte.c **** /*****************************************************************************/
  46:source\rte/rte.c **** 
  47:source\rte/rte.c **** 
  48:source\rte/rte.c **** /*****************************************************************************/
  49:source\rte/rte.c **** /* Function implementation - global ('extern') and local ('static')          */
  50:source\rte/rte.c **** /*****************************************************************************/
  51:source\rte/rte.c **** 
  52:source\rte/rte.c **** /**
  53:source\rte/rte.c ****  * Will call all cyclic runnables when due
  54:source\rte/rte.c ****  * \param RTE_cyclicTable_t const *const table : [IN] table to be processed
  55:source\rte/rte.c ****  * \param uint16_t tableSize : [IN] table size
  56:source\rte/rte.c ****  * \param uint32_t* time : [IN] ticktime elapsed since start in ms
  57:source\rte/rte.c ****  * \return RC_SUCCESS if all ok, error code otherwise
  58:source\rte/rte.c ****  */
  59:source\rte/rte.c **** RC_t RTE_ProcessCyclicTable(RTE_cyclicTable_t const *const table, uint16_t tableSize, uint32_t time
  60:source\rte/rte.c **** {
  28              		.loc 1 60 0
  29              		.cfi_startproc
  30              		@ args = 0, pretend = 0, frame = 0
  31              		@ frame_needed = 0, uses_anonymous_args = 0
  32              	.LVL0:
  33 0000 F8B5     		push	{r3, r4, r5, r6, r7, lr}
  34              		.cfi_def_cfa_offset 24
  35              		.cfi_offset 3, -24
  36              		.cfi_offset 4, -20
  37              		.cfi_offset 5, -16
  38              		.cfi_offset 6, -12
  39              		.cfi_offset 7, -8
  40              		.cfi_offset 14, -4
  41 0002 0646     		mov	r6, r0
  42 0004 0F46     		mov	r7, r1
  43 0006 1546     		mov	r5, r2
  44              	.LVL1:
  45              	.LBB2:
  61:source\rte/rte.c **** 	RC_t rc = RC_SUCCESS;
  62:source\rte/rte.c ****     
  63:source\rte/rte.c ****     for (uint16_t i = 0; i < tableSize; i++)
  46              		.loc 1 63 0
  47 0008 0024     		movs	r4, #0
  48 000a 0DE0     		b	.L2
  49              	.LVL2:
  50              	.L4:
  64:source\rte/rte.c ****     {
ARM GAS  C:\Users\zakis\AppData\Local\Temp\ccLRojdb.s 			page 3


  65:source\rte/rte.c ****         if (0 == (time % table[i].cycleTime))
  51              		.loc 1 65 0
  52 000c 06EBC403 		add	r3, r6, r4, lsl #3
  53 0010 9A88     		ldrh	r2, [r3, #4]
  54 0012 B5FBF2F3 		udiv	r3, r5, r2
  55 0016 02FB1353 		mls	r3, r2, r3, r5
  56 001a 1BB9     		cbnz	r3, .L3
  66:source\rte/rte.c ****         {
  67:source\rte/rte.c **** 			//No event information in this case
  68:source\rte/rte.c ****             table[i].run(0);
  57              		.loc 1 68 0
  58 001c 56F83430 		ldr	r3, [r6, r4, lsl #3]
  59 0020 0020     		movs	r0, #0
  60 0022 9847     		blx	r3
  61              	.LVL3:
  62              	.L3:
  63:source\rte/rte.c ****     {
  63              		.loc 1 63 0 discriminator 2
  64 0024 0134     		adds	r4, r4, #1
  65              	.LVL4:
  66 0026 A4B2     		uxth	r4, r4
  67              	.LVL5:
  68              	.L2:
  63:source\rte/rte.c ****     {
  69              		.loc 1 63 0 is_stmt 0 discriminator 1
  70 0028 BC42     		cmp	r4, r7
  71 002a EFD3     		bcc	.L4
  72              	.LBE2:
  69:source\rte/rte.c ****         }
  70:source\rte/rte.c ****     }
  71:source\rte/rte.c **** 	
  72:source\rte/rte.c **** 	return rc;
  73:source\rte/rte.c ****     
  74:source\rte/rte.c **** }
  73              		.loc 1 74 0 is_stmt 1
  74 002c 0020     		movs	r0, #0
  75 002e F8BD     		pop	{r3, r4, r5, r6, r7, pc}
  76              		.cfi_endproc
  77              	.LFE110:
  78              		.size	RTE_ProcessCyclicTable, .-RTE_ProcessCyclicTable
  79              		.section	.text.RTE_ProcessEventTable,"ax",%progbits
  80              		.align	2
  81              		.global	RTE_ProcessEventTable
  82              		.thumb
  83              		.thumb_func
  84              		.type	RTE_ProcessEventTable, %function
  85              	RTE_ProcessEventTable:
  86              	.LFB111:
  75:source\rte/rte.c ****     
  76:source\rte/rte.c **** /**
  77:source\rte/rte.c ****  * Will call all event runnables when due
  78:source\rte/rte.c ****  * \param RTE_eventTable_t const *const table : [IN] table to be processed
  79:source\rte/rte.c ****  * \param uint16_t tableSize : [IN] table size
  80:source\rte/rte.c ****  * \param EventMaskType ev : [IN] event mask to be processed
  81:source\rte/rte.c ****  * \return RC_SUCCESS if all ok, error code otherwise
  82:source\rte/rte.c ****  */
  83:source\rte/rte.c **** RC_t RTE_ProcessEventTable(RTE_eventTable_t const *const table, uint16_t tableSize, EventMaskType e
ARM GAS  C:\Users\zakis\AppData\Local\Temp\ccLRojdb.s 			page 4


  84:source\rte/rte.c **** {
  87              		.loc 1 84 0
  88              		.cfi_startproc
  89              		@ args = 0, pretend = 0, frame = 0
  90              		@ frame_needed = 0, uses_anonymous_args = 0
  91              	.LVL6:
  92 0000 F8B5     		push	{r3, r4, r5, r6, r7, lr}
  93              		.cfi_def_cfa_offset 24
  94              		.cfi_offset 3, -24
  95              		.cfi_offset 4, -20
  96              		.cfi_offset 5, -16
  97              		.cfi_offset 6, -12
  98              		.cfi_offset 7, -8
  99              		.cfi_offset 14, -4
 100 0002 0546     		mov	r5, r0
 101 0004 0E46     		mov	r6, r1
 102 0006 1746     		mov	r7, r2
 103              	.LVL7:
 104              	.LBB3:
  85:source\rte/rte.c ****     RC_t rc = RC_SUCCESS;
  86:source\rte/rte.c **** 	
  87:source\rte/rte.c ****     for (uint16_t i = 0; i < tableSize; i++)
 105              		.loc 1 87 0
 106 0008 0024     		movs	r4, #0
 107 000a 09E0     		b	.L7
 108              	.LVL8:
 109              	.L9:
  88:source\rte/rte.c ****     {
  89:source\rte/rte.c ****         if (ev & table[i].event)
 110              		.loc 1 89 0
 111 000c 05EBC403 		add	r3, r5, r4, lsl #3
 112 0010 5868     		ldr	r0, [r3, #4]
 113 0012 3842     		tst	r0, r7
 114 0014 02D0     		beq	.L8
  90:source\rte/rte.c ****         {
  91:source\rte/rte.c **** 			//Fire activating event
  92:source\rte/rte.c ****             table[i].run(table[i].event);
 115              		.loc 1 92 0
 116 0016 55F83430 		ldr	r3, [r5, r4, lsl #3]
 117 001a 9847     		blx	r3
 118              	.LVL9:
 119              	.L8:
  87:source\rte/rte.c ****     {
 120              		.loc 1 87 0 discriminator 2
 121 001c 0134     		adds	r4, r4, #1
 122              	.LVL10:
 123 001e A4B2     		uxth	r4, r4
 124              	.LVL11:
 125              	.L7:
  87:source\rte/rte.c ****     {
 126              		.loc 1 87 0 is_stmt 0 discriminator 1
 127 0020 B442     		cmp	r4, r6
 128 0022 F3D3     		bcc	.L9
 129              	.LBE3:
  93:source\rte/rte.c ****         }
  94:source\rte/rte.c ****     }
  95:source\rte/rte.c **** 	
ARM GAS  C:\Users\zakis\AppData\Local\Temp\ccLRojdb.s 			page 5


  96:source\rte/rte.c **** 	return rc;
  97:source\rte/rte.c ****     
  98:source\rte/rte.c **** }...
 130              		.loc 1 98 0 is_stmt 1
 131 0024 0020     		movs	r0, #0
 132 0026 F8BD     		pop	{r3, r4, r5, r6, r7, pc}
 133              		.cfi_endproc
 134              	.LFE111:
 135              		.size	RTE_ProcessEventTable, .-RTE_ProcessEventTable
 136              		.text
 137              	.Letext0:
 138              		.file 2 ".\\source\\bsw/global.h"
 139              		.file 3 "c:\\program files (x86)\\cypress\\psoc creator\\4.4\\psoc creator\\import\\gnu\\arm\\5.4.
 140              		.file 4 "c:\\program files (x86)\\cypress\\psoc creator\\4.4\\psoc creator\\import\\gnu\\arm\\5.4.
 141              		.file 5 "Generated_Source\\PSoC5/ErikaOS_common_ee_types.inc"
 142              		.file 6 "Generated_Source\\PSoC5/ErikaOS_cortex_mx_ee_cpu.inc"
 143              		.file 7 "Generated_Source\\PSoC5/ErikaOS_ee_oo_common.inc"
 144              		.file 8 "source\\rte\\rte_types.h"
 145              		.file 9 "source\\rte\\rte.h"
 146              		.file 10 "Generated_Source\\PSoC5/ErikaOS_ee_oo_intfunc.inc"
 147              		.file 11 "Generated_Source\\PSoC5/ErikaOS_cortex_mx_ee_context.inc"
 148              		.file 12 "Generated_Source\\PSoC5/ErikaOS_common_ee_primitives.inc"
 149              		.file 13 "Generated_Source\\PSoC5/core_cm3.h"