ARM GAS  C:\Users\zakis\AppData\Local\Temp\ccz117nj.s 			page 1


   1              		.syntax unified
   2              		.cpu cortex-m3
   3              		.fpu softvfp
   4              		.eabi_attribute 20, 1
   5              		.eabi_attribute 21, 1
   6              		.eabi_attribute 23, 3
   7              		.eabi_attribute 24, 1
   8              		.eabi_attribute 25, 1
   9              		.eabi_attribute 26, 1
  10              		.eabi_attribute 30, 1
  11              		.eabi_attribute 34, 1
  12              		.eabi_attribute 18, 4
  13              		.thumb
  14              		.syntax unified
  15              		.file	"sc_joystick_type.c"
  16              		.text
  17              	.Ltext0:
  18              		.cfi_sections	.debug_frame
  19              		.section	.text.SC_JOYSTICK_driverIn,"ax",%progbits
  20              		.align	2
  21              		.global	SC_JOYSTICK_driverIn
  22              		.thumb
  23              		.thumb_func
  24              		.type	SC_JOYSTICK_driverIn, %function
  25              	SC_JOYSTICK_driverIn:
  26              	.LFB110:
  27              		.file 1 "source\\rte\\sc_joystick_type.c"
   1:source\rte/sc_joystick_type.c **** /*
   2:source\rte/sc_joystick_type.c ****  * Filename: sc_joystick_type.c
   3:source\rte/sc_joystick_type.c ****  *
   4:source\rte/sc_joystick_type.c ****  * Author: Autogenerated by H-DA RTE Generator, (c) Prof. Fromm
   5:source\rte/sc_joystick_type.c ****  *
   6:source\rte/sc_joystick_type.c ****  * description: Signal for Joystick 
   7:source\rte/sc_joystick_type.c ****  * name: sc_joystick
   8:source\rte/sc_joystick_type.c ****  * shortname: joystick
   9:source\rte/sc_joystick_type.c ****  *
  10:source\rte/sc_joystick_type.c ****  */
  11:source\rte/sc_joystick_type.c **** 
  12:source\rte/sc_joystick_type.c **** #include "project.h"
  13:source\rte/sc_joystick_type.c **** #include "global.h"
  14:source\rte/sc_joystick_type.c **** #include "rte.h"
  15:source\rte/sc_joystick_type.c **** #include "rte_types.h"
  16:source\rte/sc_joystick_type.c **** #include "sc_joystick_type.h"
  17:source\rte/sc_joystick_type.c **** 
  18:source\rte/sc_joystick_type.c **** 
  19:source\rte/sc_joystick_type.c **** 
  20:source\rte/sc_joystick_type.c **** /* USER CODE START SC_JOYSTICK_INCLUDE */
  21:source\rte/sc_joystick_type.c **** 
  22:source\rte/sc_joystick_type.c **** /* USER CODE END SC_JOYSTICK_INCLUDE */
  23:source\rte/sc_joystick_type.c **** 
  24:source\rte/sc_joystick_type.c **** 
  25:source\rte/sc_joystick_type.c **** 
  26:source\rte/sc_joystick_type.c **** 
  27:source\rte/sc_joystick_type.c **** /* USER CODE START SC_JOYSTICK_USERDEFINITIONS */
  28:source\rte/sc_joystick_type.c **** 
  29:source\rte/sc_joystick_type.c **** /* USER CODE END SC_JOYSTICK_USERDEFINITIONS */
  30:source\rte/sc_joystick_type.c **** 
ARM GAS  C:\Users\zakis\AppData\Local\Temp\ccz117nj.s 			page 2


  31:source\rte/sc_joystick_type.c **** 
  32:source\rte/sc_joystick_type.c **** /*****************************************************************************************
  33:source\rte/sc_joystick_type.c ****  *************** Port Wrapper Implementation for SC_JOYSTICK signal  ****************
  34:source\rte/sc_joystick_type.c ****  *****************************************************************************************/
  35:source\rte/sc_joystick_type.c ****  
  36:source\rte/sc_joystick_type.c ****  
  37:source\rte/sc_joystick_type.c **** 
  38:source\rte/sc_joystick_type.c **** /**
  39:source\rte/sc_joystick_type.c ****  * Default IN driver API
  40:source\rte/sc_joystick_type.c ****  */
  41:source\rte/sc_joystick_type.c **** inline RC_t SC_JOYSTICK_driverIn(SC_JOYSTICK_data_t *const data)
  42:source\rte/sc_joystick_type.c **** {
  28              		.loc 1 42 0
  29              		.cfi_startproc
  30              		@ args = 0, pretend = 0, frame = 8
  31              		@ frame_needed = 0, uses_anonymous_args = 0
  32              	.LVL0:
  33 0000 30B5     		push	{r4, r5, lr}
  34              		.cfi_def_cfa_offset 12
  35              		.cfi_offset 4, -12
  36              		.cfi_offset 5, -8
  37              		.cfi_offset 14, -4
  38 0002 83B0     		sub	sp, sp, #12
  39              		.cfi_def_cfa_offset 24
  40 0004 0546     		mov	r5, r0
  43:source\rte/sc_joystick_type.c **** 	/* USER CODE START driverInSC_JOYSTICK */
  44:source\rte/sc_joystick_type.c **** //    UART_Logs_PutString("JoystickIN\n");
  45:source\rte/sc_joystick_type.c **** 	//Read data from the MCAL driver
  46:source\rte/sc_joystick_type.c ****     sint8_t x = 0;
  41              		.loc 1 46 0
  42 0006 0024     		movs	r4, #0
  43 0008 8DF80740 		strb	r4, [sp, #7]
  47:source\rte/sc_joystick_type.c ****     sint8_t y = 0; 
  44              		.loc 1 47 0
  45 000c 02A9     		add	r1, sp, #8
  46 000e 01F8024D 		strb	r4, [r1, #-2]!
  47              	.LVL1:
  48:source\rte/sc_joystick_type.c ****     
  49:source\rte/sc_joystick_type.c ****     sint8_t* x_ptr = &x;
  50:source\rte/sc_joystick_type.c ****     sint8_t* y_ptr = &y;
  51:source\rte/sc_joystick_type.c ****     
  52:source\rte/sc_joystick_type.c ****     JOYSTICK_ReadPosition(x_ptr, y_ptr);
  48              		.loc 1 52 0
  49 0012 0DF10700 		add	r0, sp, #7
  50              	.LVL2:
  51 0016 FFF7FEFF 		bl	JOYSTICK_ReadPosition
  52              	.LVL3:
  53:source\rte/sc_joystick_type.c ****     data -> m_joystickValue = y;
  53              		.loc 1 53 0
  54 001a 9DF90630 		ldrsb	r3, [sp, #6]
  55 001e 2B70     		strb	r3, [r5]
  54:source\rte/sc_joystick_type.c **** 	//Scale it to the application type
  55:source\rte/sc_joystick_type.c **** 
  56:source\rte/sc_joystick_type.c **** 	return RC_SUCCESS;
  57:source\rte/sc_joystick_type.c **** 	/* USER CODE END driverInSC_JOYSTICK */
  58:source\rte/sc_joystick_type.c **** }
  56              		.loc 1 58 0
ARM GAS  C:\Users\zakis\AppData\Local\Temp\ccz117nj.s 			page 3


  57 0020 2046     		mov	r0, r4
  58 0022 03B0     		add	sp, sp, #12
  59              		.cfi_def_cfa_offset 12
  60              		@ sp needed
  61 0024 30BD     		pop	{r4, r5, pc}
  62              		.cfi_endproc
  63              	.LFE110:
  64              		.size	SC_JOYSTICK_driverIn, .-SC_JOYSTICK_driverIn
  65 0026 00BF     		.text
  66              	.Letext0:
  67              		.file 2 "c:\\program files (x86)\\cypress\\psoc creator\\4.4\\psoc creator\\import\\gnu\\arm\\5.4.
  68              		.file 3 "c:\\program files (x86)\\cypress\\psoc creator\\4.4\\psoc creator\\import\\gnu\\arm\\5.4.
  69              		.file 4 "Generated_Source\\PSoC5/ErikaOS_common_ee_types.inc"
  70              		.file 5 "Generated_Source\\PSoC5/ErikaOS_cortex_mx_ee_cpu.inc"
  71              		.file 6 ".\\source\\bsw/global.h"
  72              		.file 7 "source\\rte\\sc_joystick_type.h"
  73              		.file 8 "Generated_Source\\PSoC5/ErikaOS_ee_oo_intfunc.inc"
  74              		.file 9 "Generated_Source\\PSoC5/ErikaOS_cortex_mx_ee_context.inc"
  75              		.file 10 "Generated_Source\\PSoC5/ErikaOS_common_ee_primitives.inc"
  76              		.file 11 "Generated_Source\\PSoC5/core_cm3.h"