ARM GAS  C:\Users\zakis\AppData\Local\Temp\cceUSJe3.s 			page 1


   1              		.syntax unified
   2              		.cpu cortex-m3
   3              		.fpu softvfp
   4              		.eabi_attribute 20, 1
   5              		.eabi_attribute 21, 1
   6              		.eabi_attribute 23, 3
   7              		.eabi_attribute 24, 1
   8              		.eabi_attribute 25, 1
   9              		.eabi_attribute 26, 1
  10              		.eabi_attribute 30, 1
  11              		.eabi_attribute 34, 1
  12              		.eabi_attribute 18, 4
  13              		.thumb
  14              		.syntax unified
  15              		.file	"swc_output.c"
  16              		.text
  17              	.Ltext0:
  18              		.cfi_sections	.debug_frame
  19              		.section	.text.OUTPUT_setEngine_run,"ax",%progbits
  20              		.align	2
  21              		.global	OUTPUT_setEngine_run
  22              		.thumb
  23              		.thumb_func
  24              		.type	OUTPUT_setEngine_run, %function
  25              	OUTPUT_setEngine_run:
  26              	.LFB165:
  27              		.file 1 "source\\asw\\swc_output.c"
   1:source\asw/swc_output.c **** /*
   2:source\asw/swc_output.c ****  * Filename: swc_output.c
   3:source\asw/swc_output.c ****  *
   4:source\asw/swc_output.c ****  * Author: Autogenerated by H-DA RTE Generator, (c) Prof. Fromm
   5:source\asw/swc_output.c ****  *
   6:source\asw/swc_output.c ****  * description: engine and brakelights
   7:source\asw/swc_output.c ****  * name: swc_output
   8:source\asw/swc_output.c ****  * shortname: output
   9:source\asw/swc_output.c ****  *
  10:source\asw/swc_output.c ****  */
  11:source\asw/swc_output.c **** 
  12:source\asw/swc_output.c **** #include "project.h"
  13:source\asw/swc_output.c **** #include "global.h"
  14:source\asw/swc_output.c **** #include "rte.h"
  15:source\asw/swc_output.c **** #include "rte_types.h"
  16:source\asw/swc_output.c **** #include "swc_output.h"
  17:source\asw/swc_output.c **** 
  18:source\asw/swc_output.c **** 
  19:source\asw/swc_output.c **** 
  20:source\asw/swc_output.c **** /* USER CODE START SWC_OUTPUT_INCLUDE */
  21:source\asw/swc_output.c **** 
  22:source\asw/swc_output.c **** /* USER CODE END SWC_OUTPUT_INCLUDE */
  23:source\asw/swc_output.c **** 
  24:source\asw/swc_output.c **** 
  25:source\asw/swc_output.c **** #include "sp_common.h"
  26:source\asw/swc_output.c **** 
  27:source\asw/swc_output.c **** /* USER CODE START SWC_OUTPUT_USERDEFINITIONS */
  28:source\asw/swc_output.c **** 
  29:source\asw/swc_output.c **** /* USER CODE END SWC_OUTPUT_USERDEFINITIONS */
  30:source\asw/swc_output.c **** 
ARM GAS  C:\Users\zakis\AppData\Local\Temp\cceUSJe3.s 			page 2


  31:source\asw/swc_output.c **** 
  32:source\asw/swc_output.c **** 
  33:source\asw/swc_output.c **** /*
  34:source\asw/swc_output.c ****  * component: swc_output
  35:source\asw/swc_output.c ****  * cycletime: 100
  36:source\asw/swc_output.c ****  * description: Sets Green LED according to Engine Speed
  37:source\asw/swc_output.c ****  * events: 
  38:source\asw/swc_output.c ****  * name: OUTPUT_setEngine_run
  39:source\asw/swc_output.c ****  * shortname: setEngine
  40:source\asw/swc_output.c ****  * signalIN: so_speed
  41:source\asw/swc_output.c ****  * signalOUT: so_engine
  42:source\asw/swc_output.c ****  * task: tsk_io
  43:source\asw/swc_output.c ****  */
  44:source\asw/swc_output.c **** void OUTPUT_setEngine_run(RTE_event ev){
  28              		.loc 1 44 0
  29              		.cfi_startproc
  30              		@ args = 0, pretend = 0, frame = 0
  31              		@ frame_needed = 0, uses_anonymous_args = 0
  32              	.LVL0:
  33 0000 38B5     		push	{r3, r4, r5, lr}
  34              		.cfi_def_cfa_offset 16
  35              		.cfi_offset 3, -16
  36              		.cfi_offset 4, -12
  37              		.cfi_offset 5, -8
  38              		.cfi_offset 14, -4
  39              	.LVL1:
  40              	.LBB18:
  41              	.LBB19:
  42              		.file 2 ".\\source\\rte/sc_speed.h"
   1:.\source\rte/sc_speed.h **** 
   2:.\source\rte/sc_speed.h **** 
   3:.\source\rte/sc_speed.h **** /**
   4:.\source\rte/sc_speed.h ****  *  file    SC_SPEED_signal.h
   5:.\source\rte/sc_speed.h ****  *
   6:.\source\rte/sc_speed.h ****  *  brief   signal base class for signal sc_speed
   7:.\source\rte/sc_speed.h ****  *
   8:.\source\rte/sc_speed.h ****  *  author  Autogenerated, Peter Fromm       <peter.fromm@h-da.de>
   9:.\source\rte/sc_speed.h ****  *
  10:.\source\rte/sc_speed.h ****  * description: Signal for Speed
  11:.\source\rte/sc_speed.h ****  * name: sc_speed
  12:.\source\rte/sc_speed.h ****  * shortname: speed
  13:.\source\rte/sc_speed.h ****  *
  14:.\source\rte/sc_speed.h ****  */
  15:.\source\rte/sc_speed.h **** 
  16:.\source\rte/sc_speed.h **** 
  17:.\source\rte/sc_speed.h **** 
  18:.\source\rte/sc_speed.h **** #ifndef SC_SPEED_SIGNAL_H_INCLUDED
  19:.\source\rte/sc_speed.h **** #define SC_SPEED_SIGNAL_H_INCLUDED
  20:.\source\rte/sc_speed.h **** 
  21:.\source\rte/sc_speed.h **** /*================================================[ public includes  ]=============================
  22:.\source\rte/sc_speed.h **** #include "global.h"
  23:.\source\rte/sc_speed.h **** #include "project.h"
  24:.\source\rte/sc_speed.h **** #include "rte.h"
  25:.\source\rte/sc_speed.h **** #include "rte_types.h"
  26:.\source\rte/sc_speed.h **** 
  27:.\source\rte/sc_speed.h **** #include "sc_speed_type.h"
  28:.\source\rte/sc_speed.h **** 
ARM GAS  C:\Users\zakis\AppData\Local\Temp\cceUSJe3.s 			page 3


  29:.\source\rte/sc_speed.h **** 
  30:.\source\rte/sc_speed.h **** /**************************************************************************************************
  31:.\source\rte/sc_speed.h **** /* The driver API block																						*/
  32:.\source\rte/sc_speed.h **** /**************************************************************************************************
  33:.\source\rte/sc_speed.h ****                                                                                                    
  34:.\source\rte/sc_speed.h **** /**
  35:.\source\rte/sc_speed.h ****  *  Definition of function types for driver interfaces.
  36:.\source\rte/sc_speed.h ****  *  I-Port
  37:.\source\rte/sc_speed.h ****  */
  38:.\source\rte/sc_speed.h **** typedef RC_t (*SC_SPEED_driverIn_t)(SC_SPEED_data_t * const);
  39:.\source\rte/sc_speed.h **** 
  40:.\source\rte/sc_speed.h **** /**
  41:.\source\rte/sc_speed.h ****  *  Definition of function types for driver interfaces.
  42:.\source\rte/sc_speed.h ****  *  O-Port
  43:.\source\rte/sc_speed.h ****  */
  44:.\source\rte/sc_speed.h **** typedef RC_t (*SC_SPEED_driverOut_t)( const SC_SPEED_data_t * const);
  45:.\source\rte/sc_speed.h **** 
  46:.\source\rte/sc_speed.h **** 
  47:.\source\rte/sc_speed.h **** /**************************************************************************************************
  48:.\source\rte/sc_speed.h **** /* The signal configuration API block																				*/
  49:.\source\rte/sc_speed.h **** /**************************************************************************************************
  50:.\source\rte/sc_speed.h **** 
  51:.\source\rte/sc_speed.h **** /**
  52:.\source\rte/sc_speed.h ****  * Instances of the struct SC_SPEED_cfg_t represent the signal object configuration.
  53:.\source\rte/sc_speed.h ****  */
  54:.\source\rte/sc_speed.h **** struct SC_SPEED_cfg_s
  55:.\source\rte/sc_speed.h **** {
  56:.\source\rte/sc_speed.h ****     /**
  57:.\source\rte/sc_speed.h ****      * Function pointer to the input driver
  58:.\source\rte/sc_speed.h ****      */
  59:.\source\rte/sc_speed.h ****     SC_SPEED_driverIn_t const inDriver;
  60:.\source\rte/sc_speed.h **** 
  61:.\source\rte/sc_speed.h ****     /**
  62:.\source\rte/sc_speed.h ****      * Function pointer to the output driver table
  63:.\source\rte/sc_speed.h ****      */
  64:.\source\rte/sc_speed.h ****    SC_SPEED_driverOut_t const outDriver;
  65:.\source\rte/sc_speed.h ****    
  66:.\source\rte/sc_speed.h ****     /**
  67:.\source\rte/sc_speed.h ****      * Event onUpdate
  68:.\source\rte/sc_speed.h ****      */
  69:.\source\rte/sc_speed.h ****     EventMaskType const evOnUpdate;
  70:.\source\rte/sc_speed.h ****     
  71:.\source\rte/sc_speed.h ****     
  72:.\source\rte/sc_speed.h ****     /**
  73:.\source\rte/sc_speed.h ****      * Event onError
  74:.\source\rte/sc_speed.h ****      */
  75:.\source\rte/sc_speed.h ****     EventMaskType const evOnError;
  76:.\source\rte/sc_speed.h ****     
  77:.\source\rte/sc_speed.h ****     /**
  78:.\source\rte/sc_speed.h ****      * Task Count onUpdate
  79:.\source\rte/sc_speed.h ****      */
  80:.\source\rte/sc_speed.h ****     size_t const onUpdateTaskCount;
  81:.\source\rte/sc_speed.h **** 
  82:.\source\rte/sc_speed.h ****     /**
  83:.\source\rte/sc_speed.h ****      * Task List onUpdate
  84:.\source\rte/sc_speed.h ****      */
  85:.\source\rte/sc_speed.h ****     TaskTypeArray* const onUpdateTasks;
ARM GAS  C:\Users\zakis\AppData\Local\Temp\cceUSJe3.s 			page 4


  86:.\source\rte/sc_speed.h ****     
  87:.\source\rte/sc_speed.h ****     /**
  88:.\source\rte/sc_speed.h ****      * Task Count onError
  89:.\source\rte/sc_speed.h ****      */
  90:.\source\rte/sc_speed.h ****     size_t const onErrorTaskCount;
  91:.\source\rte/sc_speed.h **** 
  92:.\source\rte/sc_speed.h ****     /**
  93:.\source\rte/sc_speed.h ****      * Task List onError
  94:.\source\rte/sc_speed.h ****      */
  95:.\source\rte/sc_speed.h ****     TaskTypeArray* const onErrorTasks;
  96:.\source\rte/sc_speed.h **** 	
  97:.\source\rte/sc_speed.h **** 	
  98:.\source\rte/sc_speed.h **** 	/**
  99:.\source\rte/sc_speed.h **** 	 * Ressourse is active? We need an additional boolean as a ressource value 0 is valid.
 100:.\source\rte/sc_speed.h **** 	 */
 101:.\source\rte/sc_speed.h **** 	 boolean_t const resourceActive;
 102:.\source\rte/sc_speed.h **** 	 
 103:.\source\rte/sc_speed.h **** 	/**
 104:.\source\rte/sc_speed.h **** 	 * Ressourse 
 105:.\source\rte/sc_speed.h **** 	 */
 106:.\source\rte/sc_speed.h **** 	 ResourceType const resource;
 107:.\source\rte/sc_speed.h **** 
 108:.\source\rte/sc_speed.h **** };                                                                                                 
 109:.\source\rte/sc_speed.h **** typedef const struct SC_SPEED_cfg_s SC_SPEED_cfg_t;
 110:.\source\rte/sc_speed.h ****                               
 111:.\source\rte/sc_speed.h **** /**************************************************************************************************
 112:.\source\rte/sc_speed.h **** /* The data interface block																							*/
 113:.\source\rte/sc_speed.h **** /**************************************************************************************************
 114:.\source\rte/sc_speed.h **** 
 115:.\source\rte/sc_speed.h ****                                                                                                    
 116:.\source\rte/sc_speed.h **** 							  
 117:.\source\rte/sc_speed.h **** /**
 118:.\source\rte/sc_speed.h ****  * Instances of the struct SC_SPEED_t represent the signal objects.
 119:.\source\rte/sc_speed.h ****  * A signal object contains the current application value 'value' as well as relevant meta data.
 120:.\source\rte/sc_speed.h ****  */
 121:.\source\rte/sc_speed.h **** struct SC_SPEED_s
 122:.\source\rte/sc_speed.h **** {                                                                                                  
 123:.\source\rte/sc_speed.h **** 
 124:.\source\rte/sc_speed.h **** 	/**
 125:.\source\rte/sc_speed.h **** 	 * Data buffer for the application value
 126:.\source\rte/sc_speed.h **** 	 */
 127:.\source\rte/sc_speed.h ****     SC_SPEED_data_t value;
 128:.\source\rte/sc_speed.h **** 
 129:.\source\rte/sc_speed.h ****     /**
 130:.\source\rte/sc_speed.h ****      * Current signal status
 131:.\source\rte/sc_speed.h ****      */
 132:.\source\rte/sc_speed.h ****     RTE_signalStatus_t status;
 133:.\source\rte/sc_speed.h **** 
 134:.\source\rte/sc_speed.h ****     /**
 135:.\source\rte/sc_speed.h ****      * Current age of the signal (in calling cycles)
 136:.\source\rte/sc_speed.h ****      */
 137:.\source\rte/sc_speed.h ****     uint32_t age;
 138:.\source\rte/sc_speed.h **** 
 139:.\source\rte/sc_speed.h ****     /**
 140:.\source\rte/sc_speed.h ****      * Pointer to the signal configuration
 141:.\source\rte/sc_speed.h ****      */
 142:.\source\rte/sc_speed.h **** 	const SC_SPEED_cfg_t * const    pSigCfg;
ARM GAS  C:\Users\zakis\AppData\Local\Temp\cceUSJe3.s 			page 5


 143:.\source\rte/sc_speed.h **** 
 144:.\source\rte/sc_speed.h **** };                                                                                                 
 145:.\source\rte/sc_speed.h **** typedef struct SC_SPEED_s SC_SPEED_t;
 146:.\source\rte/sc_speed.h **** 
 147:.\source\rte/sc_speed.h **** /**************************************************************************************************
 148:.\source\rte/sc_speed.h **** /* Signal initialisation   																							*/
 149:.\source\rte/sc_speed.h **** /**************************************************************************************************
 150:.\source\rte/sc_speed.h **** 
 151:.\source\rte/sc_speed.h **** /**
 152:.\source\rte/sc_speed.h ****  * Initializes a signal instance with a passed init value.
 153:.\source\rte/sc_speed.h ****  * Depending on the configured conversion or scaling function the raw_value will be calculated.
 154:.\source\rte/sc_speed.h ****  * Signal status will change from RTE_SIGNALSTATUS_STARTUP to RTE_SIGNALSTATUS_INITIALIZED.
 155:.\source\rte/sc_speed.h ****  *
 156:.\source\rte/sc_speed.h ****  * @param  SC_SPEED_t * const signal: Pointer to the signal object which will be initialised
 157:.\source\rte/sc_speed.h ****  * @return RC_t: standard return code, currently only RC_SUCCESS
 158:.\source\rte/sc_speed.h ****  *
 159:.\source\rte/sc_speed.h ****  **/
 160:.\source\rte/sc_speed.h **** inline RC_t RTE_SC_SPEED_init( SC_SPEED_t * const signal )
 161:.\source\rte/sc_speed.h **** {                                                                                                  
 162:.\source\rte/sc_speed.h **** 
 163:.\source\rte/sc_speed.h ****    RC_t ret = RC_SUCCESS;
 164:.\source\rte/sc_speed.h **** 
 165:.\source\rte/sc_speed.h ****    //Set value and raw value
 166:.\source\rte/sc_speed.h ****    signal->value  = SC_SPEED_INIT_DATA;
 167:.\source\rte/sc_speed.h ****    signal->age    = 0;
 168:.\source\rte/sc_speed.h ****    signal->status = RTE_SIGNALSTATUS_INITIALIZED;
 169:.\source\rte/sc_speed.h **** 
 170:.\source\rte/sc_speed.h ****    return ret;
 171:.\source\rte/sc_speed.h **** }
 172:.\source\rte/sc_speed.h **** 
 173:.\source\rte/sc_speed.h **** /**************************************************************************************************
 174:.\source\rte/sc_speed.h **** /* Status and timeout control																						*/
 175:.\source\rte/sc_speed.h **** /**************************************************************************************************
 176:.\source\rte/sc_speed.h **** 
 177:.\source\rte/sc_speed.h **** /**
 178:.\source\rte/sc_speed.h ****  *  Returns the current signal status of the passed signal instance.
 179:.\source\rte/sc_speed.h ****  *
 180:.\source\rte/sc_speed.h ****  * @param  SC_SPEED_t * const signal: Pointer to the signal object
 181:.\source\rte/sc_speed.h ****  * @return  sig_status_t: The current signal status
 182:.\source\rte/sc_speed.h ****  *
 183:.\source\rte/sc_speed.h ****  **/
 184:.\source\rte/sc_speed.h **** inline RTE_signalStatus_t RTE_SC_SPEED_getStatus( const SC_SPEED_t * const signal )
 185:.\source\rte/sc_speed.h **** {
 186:.\source\rte/sc_speed.h ****    return signal->status;
 187:.\source\rte/sc_speed.h **** }
 188:.\source\rte/sc_speed.h **** 
 189:.\source\rte/sc_speed.h **** 
 190:.\source\rte/sc_speed.h **** /**
 191:.\source\rte/sc_speed.h ****  *  Sets a new signal status of the passed signal instance by passing the new status.
 192:.\source\rte/sc_speed.h ****  *
 193:.\source\rte/sc_speed.h ****  * @param  SC_SPEED_t * const signal: Pointer to the signal object
 194:.\source\rte/sc_speed.h ****  * @param  const sig_status_t status: New signal status
 195:.\source\rte/sc_speed.h ****  * @return RC_t: standard return code, currently only RC_SUCCESS
 196:.\source\rte/sc_speed.h ****  *
 197:.\source\rte/sc_speed.h ****  */
 198:.\source\rte/sc_speed.h **** inline RC_t RTE_SC_SPEED_setStatus( SC_SPEED_t * const signal, const RTE_signalStatus_t status )
 199:.\source\rte/sc_speed.h **** {
ARM GAS  C:\Users\zakis\AppData\Local\Temp\cceUSJe3.s 			page 6


 200:.\source\rte/sc_speed.h ****    signal->status = status;
 201:.\source\rte/sc_speed.h ****    size_t taskNum=0;
 202:.\source\rte/sc_speed.h ****    
 203:.\source\rte/sc_speed.h ****    //Fire error events in case of invalid state
 204:.\source\rte/sc_speed.h ****    if (signal->status == RTE_SIGNALSTATUS_INVALID)
 205:.\source\rte/sc_speed.h ****    {
 206:.\source\rte/sc_speed.h **** 	    //Pointer to the Taskarray, containing the tasks receiving the onUpdate events
 207:.\source\rte/sc_speed.h **** 		TaskTypeArray* pTaskArray = signal->pSigCfg->onErrorTasks;
 208:.\source\rte/sc_speed.h **** 
 209:.\source\rte/sc_speed.h **** 		if (0 != signal->pSigCfg->evOnError && NULL != pTaskArray){
 210:.\source\rte/sc_speed.h **** 			for( taskNum=0 ; taskNum < signal->pSigCfg->onErrorTaskCount ;taskNum++){
 211:.\source\rte/sc_speed.h **** 				TaskType task = (*pTaskArray)[taskNum];
 212:.\source\rte/sc_speed.h **** 				SetEvent( task, signal->pSigCfg->evOnError);
 213:.\source\rte/sc_speed.h **** 			}
 214:.\source\rte/sc_speed.h **** 		}
 215:.\source\rte/sc_speed.h ****    }
 216:.\source\rte/sc_speed.h ****    
 217:.\source\rte/sc_speed.h ****    return RC_SUCCESS;
 218:.\source\rte/sc_speed.h **** }
 219:.\source\rte/sc_speed.h **** 
 220:.\source\rte/sc_speed.h **** 
 221:.\source\rte/sc_speed.h **** /**
 222:.\source\rte/sc_speed.h ****  * Returns the count of refreshing trials (refresh, set or set_raw) that failed.
 223:.\source\rte/sc_speed.h ****  * Prerquisite: The signal is refreshed cyclically
 224:.\source\rte/sc_speed.h ****  *
 225:.\source\rte/sc_speed.h ****  * @param  SC_SPEED_t * const signal: Pointer to the signal object
 226:.\source\rte/sc_speed.h ****  * @return uint32_t: Number of cycles since the signal has been updated for the last time
 227:.\source\rte/sc_speed.h ****  */
 228:.\source\rte/sc_speed.h **** inline uint32_t RTE_SC_SPEED_getAge( const SC_SPEED_t * const signal )
 229:.\source\rte/sc_speed.h **** {
 230:.\source\rte/sc_speed.h ****    return signal->age;
 231:.\source\rte/sc_speed.h **** }
 232:.\source\rte/sc_speed.h **** 
 233:.\source\rte/sc_speed.h **** /**
 234:.\source\rte/sc_speed.h ****  * Should be called by application or driver if no new value can be provided.
 235:.\source\rte/sc_speed.h ****  * @param  SC_SPEED_t * const signal: Pointer to the signal object
 236:.\source\rte/sc_speed.h ****  * @param uint32_t increment: incrementvalue, typically in [ms]
 237:.\source\rte/sc_speed.h ****  * @return void
 238:.\source\rte/sc_speed.h ****  */
 239:.\source\rte/sc_speed.h **** inline void RTE_SC_SPEED_incAge(  SC_SPEED_t * const signal , uint32_t increment)
 240:.\source\rte/sc_speed.h **** {
 241:.\source\rte/sc_speed.h **** 	   //Hack....
 242:.\source\rte/sc_speed.h **** 	   if ( 0xFFFF0000 > (signal->age + increment) )
 243:.\source\rte/sc_speed.h **** 	   {
 244:.\source\rte/sc_speed.h **** 	      signal->age += increment;
 245:.\source\rte/sc_speed.h **** 	   }
 246:.\source\rte/sc_speed.h **** }
 247:.\source\rte/sc_speed.h **** 
 248:.\source\rte/sc_speed.h **** 
 249:.\source\rte/sc_speed.h **** /**************************************************************************************************
 250:.\source\rte/sc_speed.h **** /* Application Data read/write Interface																			*/
 251:.\source\rte/sc_speed.h **** /**************************************************************************************************
 252:.\source\rte/sc_speed.h **** 
 253:.\source\rte/sc_speed.h **** /**
 254:.\source\rte/sc_speed.h ****  * Returns the current application value as pointer to the signal payload.
 255:.\source\rte/sc_speed.h ****  * Careful: This is not threadsafe!!!
 256:.\source\rte/sc_speed.h ****  *
ARM GAS  C:\Users\zakis\AppData\Local\Temp\cceUSJe3.s 			page 7


 257:.\source\rte/sc_speed.h ****  * @param  SC_SPEED_t * const signal: Pointer to the signal object
 258:.\source\rte/sc_speed.h ****  * @return sc_speed_data_t*: pointer to the current value of the application data buffer
 259:.\source\rte/sc_speed.h ****  *
 260:.\source\rte/sc_speed.h ****  **/
 261:.\source\rte/sc_speed.h **** inline SC_SPEED_data_t* RTE_SC_SPEED_getPtr( SC_SPEED_t * const signal )
 262:.\source\rte/sc_speed.h **** {               
 263:.\source\rte/sc_speed.h ****    //Todo: Critical region cannot be protected using return values																						
 264:.\source\rte/sc_speed.h ****    return &(signal->value);                                                                        
 265:.\source\rte/sc_speed.h **** }
 266:.\source\rte/sc_speed.h **** 
 267:.\source\rte/sc_speed.h **** /**
 268:.\source\rte/sc_speed.h ****  * Returns the current application value of the passed signal instance.
 269:.\source\rte/sc_speed.h ****  *
 270:.\source\rte/sc_speed.h ****  * @param  SC_SPEED_t * const signal: Pointer to the signal object
 271:.\source\rte/sc_speed.h ****  * @return sc_speed_data_t: current value of the application data buffer
 272:.\source\rte/sc_speed.h ****  *
 273:.\source\rte/sc_speed.h ****  **/
 274:.\source\rte/sc_speed.h **** inline SC_SPEED_data_t RTE_SC_SPEED_get( const SC_SPEED_t * const signal )
 275:.\source\rte/sc_speed.h **** {               
 276:.\source\rte/sc_speed.h ****    //Todo: Critical region cannot be protected using return values																						
 277:.\source\rte/sc_speed.h ****    return signal->value;                                                                           
  43              		.loc 2 277 0
  44 0002 1E4A     		ldr	r2, .L11
  45 0004 1178     		ldrb	r1, [r2]	@ zero_extendqisi2
  46              	.LVL2:
  47              	.LBE19:
  48              	.LBE18:
  45:source\asw/swc_output.c **** 	
  46:source\asw/swc_output.c **** 	/* USER CODE START OUTPUT_setEngine_run */
  47:source\asw/swc_output.c ****     
  48:source\asw/swc_output.c **** //    UART_Logs_PutString("In Engine\n");
  49:source\asw/swc_output.c **** //    UART_Logs_PutChar(SO_SPEED_signal.age);
  50:source\asw/swc_output.c **** //    UART_Logs_PutString("\n"); 
  51:source\asw/swc_output.c ****     
  52:source\asw/swc_output.c ****     SC_SPEED_data_t speed = RTE_SC_SPEED_get(&SO_SPEED_signal);
  53:source\asw/swc_output.c ****     SC_ENGINE_data_t engine = SC_ENGINE_INIT_DATA;
  49              		.loc 1 53 0
  50 0006 4FF00003 		mov	r3, #0
  51              	.LVL3:
  52              	.LBB20:
  53              	.LBB21:
 230:.\source\rte/sc_speed.h **** }
  54              		.loc 2 230 0
  55 000a 5268     		ldr	r2, [r2, #4]
  56              	.LVL4:
  57              	.LBE21:
  58              	.LBE20:
  54:source\asw/swc_output.c ****     
  55:source\asw/swc_output.c ****     if (RTE_SC_SPEED_getAge(&SO_SPEED_signal) < 50){
  59              		.loc 1 55 0
  60 000c 312A     		cmp	r2, #49
  61 000e 00D8     		bhi	.L2
  56:source\asw/swc_output.c ****         engine.m_engineValue = speed.m_speedValue;
  62              		.loc 1 56 0
  63 0010 0B46     		mov	r3, r1
  64              	.L2:
  65              	.LVL5:
ARM GAS  C:\Users\zakis\AppData\Local\Temp\cceUSJe3.s 			page 8


  66 0012 1C46     		mov	r4, r3
  67              	.LVL6:
  68              	.LBB22:
  69              	.LBB23:
  70              		.file 3 ".\\source\\rte/sc_engine.h"
   1:.\source\rte/sc_engine.h **** 
   2:.\source\rte/sc_engine.h **** 
   3:.\source\rte/sc_engine.h **** /**
   4:.\source\rte/sc_engine.h ****  *  file    SC_ENGINE_signal.h
   5:.\source\rte/sc_engine.h ****  *
   6:.\source\rte/sc_engine.h ****  *  brief   signal base class for signal sc_engine
   7:.\source\rte/sc_engine.h ****  *
   8:.\source\rte/sc_engine.h ****  *  author  Autogenerated, Peter Fromm       <peter.fromm@h-da.de>
   9:.\source\rte/sc_engine.h ****  *
  10:.\source\rte/sc_engine.h ****  * description: Signal for engine
  11:.\source\rte/sc_engine.h ****  * name: sc_engine
  12:.\source\rte/sc_engine.h ****  * shortname: engine
  13:.\source\rte/sc_engine.h ****  *
  14:.\source\rte/sc_engine.h ****  */
  15:.\source\rte/sc_engine.h **** 
  16:.\source\rte/sc_engine.h **** 
  17:.\source\rte/sc_engine.h **** 
  18:.\source\rte/sc_engine.h **** #ifndef SC_ENGINE_SIGNAL_H_INCLUDED
  19:.\source\rte/sc_engine.h **** #define SC_ENGINE_SIGNAL_H_INCLUDED
  20:.\source\rte/sc_engine.h **** 
  21:.\source\rte/sc_engine.h **** /*================================================[ public includes  ]=============================
  22:.\source\rte/sc_engine.h **** #include "global.h"
  23:.\source\rte/sc_engine.h **** #include "project.h"
  24:.\source\rte/sc_engine.h **** #include "rte.h"
  25:.\source\rte/sc_engine.h **** #include "rte_types.h"
  26:.\source\rte/sc_engine.h **** 
  27:.\source\rte/sc_engine.h **** #include "sc_engine_type.h"
  28:.\source\rte/sc_engine.h **** 
  29:.\source\rte/sc_engine.h **** 
  30:.\source\rte/sc_engine.h **** /**************************************************************************************************
  31:.\source\rte/sc_engine.h **** /* The driver API block																						*/
  32:.\source\rte/sc_engine.h **** /**************************************************************************************************
  33:.\source\rte/sc_engine.h ****                                                                                                    
  34:.\source\rte/sc_engine.h **** /**
  35:.\source\rte/sc_engine.h ****  *  Definition of function types for driver interfaces.
  36:.\source\rte/sc_engine.h ****  *  I-Port
  37:.\source\rte/sc_engine.h ****  */
  38:.\source\rte/sc_engine.h **** typedef RC_t (*SC_ENGINE_driverIn_t)(SC_ENGINE_data_t * const);
  39:.\source\rte/sc_engine.h **** 
  40:.\source\rte/sc_engine.h **** /**
  41:.\source\rte/sc_engine.h ****  *  Definition of function types for driver interfaces.
  42:.\source\rte/sc_engine.h ****  *  O-Port
  43:.\source\rte/sc_engine.h ****  */
  44:.\source\rte/sc_engine.h **** typedef RC_t (*SC_ENGINE_driverOut_t)( const SC_ENGINE_data_t * const);
  45:.\source\rte/sc_engine.h **** 
  46:.\source\rte/sc_engine.h **** 
  47:.\source\rte/sc_engine.h **** /**************************************************************************************************
  48:.\source\rte/sc_engine.h **** /* The signal configuration API block																				*/
  49:.\source\rte/sc_engine.h **** /**************************************************************************************************
  50:.\source\rte/sc_engine.h **** 
  51:.\source\rte/sc_engine.h **** /**
  52:.\source\rte/sc_engine.h ****  * Instances of the struct SC_ENGINE_cfg_t represent the signal object configuration.
ARM GAS  C:\Users\zakis\AppData\Local\Temp\cceUSJe3.s 			page 9


  53:.\source\rte/sc_engine.h ****  */
  54:.\source\rte/sc_engine.h **** struct SC_ENGINE_cfg_s
  55:.\source\rte/sc_engine.h **** {
  56:.\source\rte/sc_engine.h ****     /**
  57:.\source\rte/sc_engine.h ****      * Function pointer to the input driver
  58:.\source\rte/sc_engine.h ****      */
  59:.\source\rte/sc_engine.h ****     SC_ENGINE_driverIn_t const inDriver;
  60:.\source\rte/sc_engine.h **** 
  61:.\source\rte/sc_engine.h ****     /**
  62:.\source\rte/sc_engine.h ****      * Function pointer to the output driver table
  63:.\source\rte/sc_engine.h ****      */
  64:.\source\rte/sc_engine.h ****    SC_ENGINE_driverOut_t const outDriver;
  65:.\source\rte/sc_engine.h ****    
  66:.\source\rte/sc_engine.h ****     /**
  67:.\source\rte/sc_engine.h ****      * Event onUpdate
  68:.\source\rte/sc_engine.h ****      */
  69:.\source\rte/sc_engine.h ****     EventMaskType const evOnUpdate;
  70:.\source\rte/sc_engine.h ****     
  71:.\source\rte/sc_engine.h ****     
  72:.\source\rte/sc_engine.h ****     /**
  73:.\source\rte/sc_engine.h ****      * Event onError
  74:.\source\rte/sc_engine.h ****      */
  75:.\source\rte/sc_engine.h ****     EventMaskType const evOnError;
  76:.\source\rte/sc_engine.h ****     
  77:.\source\rte/sc_engine.h ****     /**
  78:.\source\rte/sc_engine.h ****      * Task Count onUpdate
  79:.\source\rte/sc_engine.h ****      */
  80:.\source\rte/sc_engine.h ****     size_t const onUpdateTaskCount;
  81:.\source\rte/sc_engine.h **** 
  82:.\source\rte/sc_engine.h ****     /**
  83:.\source\rte/sc_engine.h ****      * Task List onUpdate
  84:.\source\rte/sc_engine.h ****      */
  85:.\source\rte/sc_engine.h ****     TaskTypeArray* const onUpdateTasks;
  86:.\source\rte/sc_engine.h ****     
  87:.\source\rte/sc_engine.h ****     /**
  88:.\source\rte/sc_engine.h ****      * Task Count onError
  89:.\source\rte/sc_engine.h ****      */
  90:.\source\rte/sc_engine.h ****     size_t const onErrorTaskCount;
  91:.\source\rte/sc_engine.h **** 
  92:.\source\rte/sc_engine.h ****     /**
  93:.\source\rte/sc_engine.h ****      * Task List onError
  94:.\source\rte/sc_engine.h ****      */
  95:.\source\rte/sc_engine.h ****     TaskTypeArray* const onErrorTasks;
  96:.\source\rte/sc_engine.h **** 	
  97:.\source\rte/sc_engine.h **** 	
  98:.\source\rte/sc_engine.h **** 	/**
  99:.\source\rte/sc_engine.h **** 	 * Ressourse is active? We need an additional boolean as a ressource value 0 is valid.
 100:.\source\rte/sc_engine.h **** 	 */
 101:.\source\rte/sc_engine.h **** 	 boolean_t const resourceActive;
 102:.\source\rte/sc_engine.h **** 	 
 103:.\source\rte/sc_engine.h **** 	/**
 104:.\source\rte/sc_engine.h **** 	 * Ressourse 
 105:.\source\rte/sc_engine.h **** 	 */
 106:.\source\rte/sc_engine.h **** 	 ResourceType const resource;
 107:.\source\rte/sc_engine.h **** 
 108:.\source\rte/sc_engine.h **** };                                                                                                 
 109:.\source\rte/sc_engine.h **** typedef const struct SC_ENGINE_cfg_s SC_ENGINE_cfg_t;
ARM GAS  C:\Users\zakis\AppData\Local\Temp\cceUSJe3.s 			page 10


 110:.\source\rte/sc_engine.h ****                               
 111:.\source\rte/sc_engine.h **** /**************************************************************************************************
 112:.\source\rte/sc_engine.h **** /* The data interface block																							*/
 113:.\source\rte/sc_engine.h **** /**************************************************************************************************
 114:.\source\rte/sc_engine.h **** 
 115:.\source\rte/sc_engine.h ****                                                                                                    
 116:.\source\rte/sc_engine.h **** 							  
 117:.\source\rte/sc_engine.h **** /**
 118:.\source\rte/sc_engine.h ****  * Instances of the struct SC_ENGINE_t represent the signal objects.
 119:.\source\rte/sc_engine.h ****  * A signal object contains the current application value 'value' as well as relevant meta data.
 120:.\source\rte/sc_engine.h ****  */
 121:.\source\rte/sc_engine.h **** struct SC_ENGINE_s
 122:.\source\rte/sc_engine.h **** {                                                                                                  
 123:.\source\rte/sc_engine.h **** 
 124:.\source\rte/sc_engine.h **** 	/**
 125:.\source\rte/sc_engine.h **** 	 * Data buffer for the application value
 126:.\source\rte/sc_engine.h **** 	 */
 127:.\source\rte/sc_engine.h ****     SC_ENGINE_data_t value;
 128:.\source\rte/sc_engine.h **** 
 129:.\source\rte/sc_engine.h ****     /**
 130:.\source\rte/sc_engine.h ****      * Current signal status
 131:.\source\rte/sc_engine.h ****      */
 132:.\source\rte/sc_engine.h ****     RTE_signalStatus_t status;
 133:.\source\rte/sc_engine.h **** 
 134:.\source\rte/sc_engine.h ****     /**
 135:.\source\rte/sc_engine.h ****      * Current age of the signal (in calling cycles)
 136:.\source\rte/sc_engine.h ****      */
 137:.\source\rte/sc_engine.h ****     uint32_t age;
 138:.\source\rte/sc_engine.h **** 
 139:.\source\rte/sc_engine.h ****     /**
 140:.\source\rte/sc_engine.h ****      * Pointer to the signal configuration
 141:.\source\rte/sc_engine.h ****      */
 142:.\source\rte/sc_engine.h **** 	const SC_ENGINE_cfg_t * const    pSigCfg;
 143:.\source\rte/sc_engine.h **** 
 144:.\source\rte/sc_engine.h **** };                                                                                                 
 145:.\source\rte/sc_engine.h **** typedef struct SC_ENGINE_s SC_ENGINE_t;
 146:.\source\rte/sc_engine.h **** 
 147:.\source\rte/sc_engine.h **** /**************************************************************************************************
 148:.\source\rte/sc_engine.h **** /* Signal initialisation   																							*/
 149:.\source\rte/sc_engine.h **** /**************************************************************************************************
 150:.\source\rte/sc_engine.h **** 
 151:.\source\rte/sc_engine.h **** /**
 152:.\source\rte/sc_engine.h ****  * Initializes a signal instance with a passed init value.
 153:.\source\rte/sc_engine.h ****  * Depending on the configured conversion or scaling function the raw_value will be calculated.
 154:.\source\rte/sc_engine.h ****  * Signal status will change from RTE_SIGNALSTATUS_STARTUP to RTE_SIGNALSTATUS_INITIALIZED.
 155:.\source\rte/sc_engine.h ****  *
 156:.\source\rte/sc_engine.h ****  * @param  SC_ENGINE_t * const signal: Pointer to the signal object which will be initialised
 157:.\source\rte/sc_engine.h ****  * @return RC_t: standard return code, currently only RC_SUCCESS
 158:.\source\rte/sc_engine.h ****  *
 159:.\source\rte/sc_engine.h ****  **/
 160:.\source\rte/sc_engine.h **** inline RC_t RTE_SC_ENGINE_init( SC_ENGINE_t * const signal )
 161:.\source\rte/sc_engine.h **** {                                                                                                  
 162:.\source\rte/sc_engine.h **** 
 163:.\source\rte/sc_engine.h ****    RC_t ret = RC_SUCCESS;
 164:.\source\rte/sc_engine.h **** 
 165:.\source\rte/sc_engine.h ****    //Set value and raw value
 166:.\source\rte/sc_engine.h ****    signal->value  = SC_ENGINE_INIT_DATA;
ARM GAS  C:\Users\zakis\AppData\Local\Temp\cceUSJe3.s 			page 11


 167:.\source\rte/sc_engine.h ****    signal->age    = 0;
 168:.\source\rte/sc_engine.h ****    signal->status = RTE_SIGNALSTATUS_INITIALIZED;
 169:.\source\rte/sc_engine.h **** 
 170:.\source\rte/sc_engine.h ****    return ret;
 171:.\source\rte/sc_engine.h **** }
 172:.\source\rte/sc_engine.h **** 
 173:.\source\rte/sc_engine.h **** /**************************************************************************************************
 174:.\source\rte/sc_engine.h **** /* Status and timeout control																						*/
 175:.\source\rte/sc_engine.h **** /**************************************************************************************************
 176:.\source\rte/sc_engine.h **** 
 177:.\source\rte/sc_engine.h **** /**
 178:.\source\rte/sc_engine.h ****  *  Returns the current signal status of the passed signal instance.
 179:.\source\rte/sc_engine.h ****  *
 180:.\source\rte/sc_engine.h ****  * @param  SC_ENGINE_t * const signal: Pointer to the signal object
 181:.\source\rte/sc_engine.h ****  * @return  sig_status_t: The current signal status
 182:.\source\rte/sc_engine.h ****  *
 183:.\source\rte/sc_engine.h ****  **/
 184:.\source\rte/sc_engine.h **** inline RTE_signalStatus_t RTE_SC_ENGINE_getStatus( const SC_ENGINE_t * const signal )
 185:.\source\rte/sc_engine.h **** {
 186:.\source\rte/sc_engine.h ****    return signal->status;
 187:.\source\rte/sc_engine.h **** }
 188:.\source\rte/sc_engine.h **** 
 189:.\source\rte/sc_engine.h **** 
 190:.\source\rte/sc_engine.h **** /**
 191:.\source\rte/sc_engine.h ****  *  Sets a new signal status of the passed signal instance by passing the new status.
 192:.\source\rte/sc_engine.h ****  *
 193:.\source\rte/sc_engine.h ****  * @param  SC_ENGINE_t * const signal: Pointer to the signal object
 194:.\source\rte/sc_engine.h ****  * @param  const sig_status_t status: New signal status
 195:.\source\rte/sc_engine.h ****  * @return RC_t: standard return code, currently only RC_SUCCESS
 196:.\source\rte/sc_engine.h ****  *
 197:.\source\rte/sc_engine.h ****  */
 198:.\source\rte/sc_engine.h **** inline RC_t RTE_SC_ENGINE_setStatus( SC_ENGINE_t * const signal, const RTE_signalStatus_t status )
 199:.\source\rte/sc_engine.h **** {
 200:.\source\rte/sc_engine.h ****    signal->status = status;
 201:.\source\rte/sc_engine.h ****    size_t taskNum=0;
 202:.\source\rte/sc_engine.h ****    
 203:.\source\rte/sc_engine.h ****    //Fire error events in case of invalid state
 204:.\source\rte/sc_engine.h ****    if (signal->status == RTE_SIGNALSTATUS_INVALID)
 205:.\source\rte/sc_engine.h ****    {
 206:.\source\rte/sc_engine.h **** 	    //Pointer to the Taskarray, containing the tasks receiving the onUpdate events
 207:.\source\rte/sc_engine.h **** 		TaskTypeArray* pTaskArray = signal->pSigCfg->onErrorTasks;
 208:.\source\rte/sc_engine.h **** 
 209:.\source\rte/sc_engine.h **** 		if (0 != signal->pSigCfg->evOnError && NULL != pTaskArray){
 210:.\source\rte/sc_engine.h **** 			for( taskNum=0 ; taskNum < signal->pSigCfg->onErrorTaskCount ;taskNum++){
 211:.\source\rte/sc_engine.h **** 				TaskType task = (*pTaskArray)[taskNum];
 212:.\source\rte/sc_engine.h **** 				SetEvent( task, signal->pSigCfg->evOnError);
 213:.\source\rte/sc_engine.h **** 			}
 214:.\source\rte/sc_engine.h **** 		}
 215:.\source\rte/sc_engine.h ****    }
 216:.\source\rte/sc_engine.h ****    
 217:.\source\rte/sc_engine.h ****    return RC_SUCCESS;
 218:.\source\rte/sc_engine.h **** }
 219:.\source\rte/sc_engine.h **** 
 220:.\source\rte/sc_engine.h **** 
 221:.\source\rte/sc_engine.h **** /**
 222:.\source\rte/sc_engine.h ****  * Returns the count of refreshing trials (refresh, set or set_raw) that failed.
 223:.\source\rte/sc_engine.h ****  * Prerquisite: The signal is refreshed cyclically
ARM GAS  C:\Users\zakis\AppData\Local\Temp\cceUSJe3.s 			page 12


 224:.\source\rte/sc_engine.h ****  *
 225:.\source\rte/sc_engine.h ****  * @param  SC_ENGINE_t * const signal: Pointer to the signal object
 226:.\source\rte/sc_engine.h ****  * @return uint32_t: Number of cycles since the signal has been updated for the last time
 227:.\source\rte/sc_engine.h ****  */
 228:.\source\rte/sc_engine.h **** inline uint32_t RTE_SC_ENGINE_getAge( const SC_ENGINE_t * const signal )
 229:.\source\rte/sc_engine.h **** {
 230:.\source\rte/sc_engine.h ****    return signal->age;
 231:.\source\rte/sc_engine.h **** }
 232:.\source\rte/sc_engine.h **** 
 233:.\source\rte/sc_engine.h **** /**
 234:.\source\rte/sc_engine.h ****  * Should be called by application or driver if no new value can be provided.
 235:.\source\rte/sc_engine.h ****  * @param  SC_ENGINE_t * const signal: Pointer to the signal object
 236:.\source\rte/sc_engine.h ****  * @param uint32_t increment: incrementvalue, typically in [ms]
 237:.\source\rte/sc_engine.h ****  * @return void
 238:.\source\rte/sc_engine.h ****  */
 239:.\source\rte/sc_engine.h **** inline void RTE_SC_ENGINE_incAge(  SC_ENGINE_t * const signal , uint32_t increment)
 240:.\source\rte/sc_engine.h **** {
 241:.\source\rte/sc_engine.h **** 	   //Hack....
 242:.\source\rte/sc_engine.h **** 	   if ( 0xFFFF0000 > (signal->age + increment) )
 243:.\source\rte/sc_engine.h **** 	   {
 244:.\source\rte/sc_engine.h **** 	      signal->age += increment;
 245:.\source\rte/sc_engine.h **** 	   }
 246:.\source\rte/sc_engine.h **** }
 247:.\source\rte/sc_engine.h **** 
 248:.\source\rte/sc_engine.h **** 
 249:.\source\rte/sc_engine.h **** /**************************************************************************************************
 250:.\source\rte/sc_engine.h **** /* Application Data read/write Interface																			*/
 251:.\source\rte/sc_engine.h **** /**************************************************************************************************
 252:.\source\rte/sc_engine.h **** 
 253:.\source\rte/sc_engine.h **** /**
 254:.\source\rte/sc_engine.h ****  * Returns the current application value as pointer to the signal payload.
 255:.\source\rte/sc_engine.h ****  * Careful: This is not threadsafe!!!
 256:.\source\rte/sc_engine.h ****  *
 257:.\source\rte/sc_engine.h ****  * @param  SC_ENGINE_t * const signal: Pointer to the signal object
 258:.\source\rte/sc_engine.h ****  * @return sc_engine_data_t*: pointer to the current value of the application data buffer
 259:.\source\rte/sc_engine.h ****  *
 260:.\source\rte/sc_engine.h ****  **/
 261:.\source\rte/sc_engine.h **** inline SC_ENGINE_data_t* RTE_SC_ENGINE_getPtr( SC_ENGINE_t * const signal )
 262:.\source\rte/sc_engine.h **** {               
 263:.\source\rte/sc_engine.h ****    //Todo: Critical region cannot be protected using return values																						
 264:.\source\rte/sc_engine.h ****    return &(signal->value);                                                                        
 265:.\source\rte/sc_engine.h **** }
 266:.\source\rte/sc_engine.h **** 
 267:.\source\rte/sc_engine.h **** /**
 268:.\source\rte/sc_engine.h ****  * Returns the current application value of the passed signal instance.
 269:.\source\rte/sc_engine.h ****  *
 270:.\source\rte/sc_engine.h ****  * @param  SC_ENGINE_t * const signal: Pointer to the signal object
 271:.\source\rte/sc_engine.h ****  * @return sc_engine_data_t: current value of the application data buffer
 272:.\source\rte/sc_engine.h ****  *
 273:.\source\rte/sc_engine.h ****  **/
 274:.\source\rte/sc_engine.h **** inline SC_ENGINE_data_t RTE_SC_ENGINE_get( const SC_ENGINE_t * const signal )
 275:.\source\rte/sc_engine.h **** {               
 276:.\source\rte/sc_engine.h ****    //Todo: Critical region cannot be protected using return values																						
 277:.\source\rte/sc_engine.h ****    return signal->value;                                                                           
 278:.\source\rte/sc_engine.h **** }                                                                                                  
 279:.\source\rte/sc_engine.h ****                                                                                                    
 280:.\source\rte/sc_engine.h **** /**
ARM GAS  C:\Users\zakis\AppData\Local\Temp\cceUSJe3.s 			page 13


 281:.\source\rte/sc_engine.h ****  * Returns the current application value of the passed signal instance threadsafe.
 282:.\source\rte/sc_engine.h ****  *
 283:.\source\rte/sc_engine.h ****  * @param  SC_ENGINE_t * const signal: Pointer to the signal object
 284:.\source\rte/sc_engine.h ****  * @param  SC_ENGINE_data_t* data: Pointer to the return data Pointer to the signal object
 285:.\source\rte/sc_engine.h ****  * @return RC_SUCCESS
 286:.\source\rte/sc_engine.h ****  *
 287:.\source\rte/sc_engine.h ****  **/
 288:.\source\rte/sc_engine.h **** inline RC_t RTE_SC_ENGINE_getThreadSafe( const SC_ENGINE_t * const signal, SC_ENGINE_data_t * const
 289:.\source\rte/sc_engine.h **** {    
 290:.\source\rte/sc_engine.h ****    if (TRUE == signal->pSigCfg->resourceActive) GetResource(signal->pSigCfg->resource);
 291:.\source\rte/sc_engine.h ****    *data = signal->value;
 292:.\source\rte/sc_engine.h ****    if (TRUE == signal->pSigCfg->resourceActive) ReleaseResource(signal->pSigCfg->resource);        
 293:.\source\rte/sc_engine.h **** 
 294:.\source\rte/sc_engine.h ****    return RC_SUCCESS;                                                                   
 295:.\source\rte/sc_engine.h ****    
 296:.\source\rte/sc_engine.h **** }                                                                                                  
 297:.\source\rte/sc_engine.h ****                                                                                                    
 298:.\source\rte/sc_engine.h **** /**
 299:.\source\rte/sc_engine.h ****  * Sets a new application value to the passed signal instance by passing the new value.
 300:.\source\rte/sc_engine.h ****  * The corresponding driver raw value will be calculated immediately by using the default conversio
 301:.\source\rte/sc_engine.h ****  * signal specific scaling function.
 302:.\source\rte/sc_engine.h ****  * The signal age will be set to 0 and the new status will be 'RTE_SIGNALSTATUS_VALID'.
 303:.\source\rte/sc_engine.h ****  *
 304:.\source\rte/sc_engine.h ****  * @param  SC_ENGINE_t * const signal: Pointer to the signal object
 305:.\source\rte/sc_engine.h ****  * @param  sc_engine_data_t const value: value for the application data buffer
 306:.\source\rte/sc_engine.h ****  * @return RC_t: standard return code, currently only RC_SUCCESS
 307:.\source\rte/sc_engine.h ****  *
 308:.\source\rte/sc_engine.h ****  **/
 309:.\source\rte/sc_engine.h **** inline RC_t RTE_SC_ENGINE_set(SC_ENGINE_t * const signal, const SC_ENGINE_data_t value  )
 310:.\source\rte/sc_engine.h **** {
 311:.\source\rte/sc_engine.h **** 
 312:.\source\rte/sc_engine.h ****    RC_t ret = RC_SUCCESS;
 313:.\source\rte/sc_engine.h ****    size_t taskNum=0;
 314:.\source\rte/sc_engine.h **** 
 315:.\source\rte/sc_engine.h **** 
 316:.\source\rte/sc_engine.h ****    if (TRUE == signal->pSigCfg->resourceActive) GetResource(signal->pSigCfg->resource);
  71              		.loc 3 316 0
  72 0014 1A4B     		ldr	r3, .L11+4
  73              	.LVL7:
  74 0016 9B68     		ldr	r3, [r3, #8]
  75 0018 93F82020 		ldrb	r2, [r3, #32]	@ zero_extendqisi2
  76 001c 012A     		cmp	r2, #1
  77 001e 02D1     		bne	.L3
  78 0020 586A     		ldr	r0, [r3, #36]
  79              	.LVL8:
  80 0022 FFF7FEFF 		bl	EE_oo_GetResource
  81              	.LVL9:
  82              	.L3:
 317:.\source\rte/sc_engine.h ****    signal->value  = value;
  83              		.loc 3 317 0
  84 0026 164B     		ldr	r3, .L11+4
  85              	.LVL10:
  86 0028 1C70     		strb	r4, [r3]
 318:.\source\rte/sc_engine.h ****    signal->age    = 0;
  87              		.loc 3 318 0
  88 002a 0022     		movs	r2, #0
  89 002c 5A60     		str	r2, [r3, #4]
ARM GAS  C:\Users\zakis\AppData\Local\Temp\cceUSJe3.s 			page 14


 319:.\source\rte/sc_engine.h ****    signal->status = RTE_SIGNALSTATUS_VALID;
  90              		.loc 3 319 0
  91 002e 0222     		movs	r2, #2
  92 0030 5A70     		strb	r2, [r3, #1]
 320:.\source\rte/sc_engine.h ****    if (TRUE == signal->pSigCfg->resourceActive) ReleaseResource(signal->pSigCfg->resource);
  93              		.loc 3 320 0
  94 0032 9B68     		ldr	r3, [r3, #8]
  95 0034 93F82020 		ldrb	r2, [r3, #32]	@ zero_extendqisi2
  96 0038 012A     		cmp	r2, #1
  97 003a 02D1     		bne	.L4
  98 003c 586A     		ldr	r0, [r3, #36]
  99 003e FFF7FEFF 		bl	EE_oo_ReleaseResource
 100              	.LVL11:
 101              	.L4:
 321:.\source\rte/sc_engine.h **** 
 322:.\source\rte/sc_engine.h ****    //Pointer to the Taskarray, containing the tasks receiving the onUpdate events
 323:.\source\rte/sc_engine.h ****    TaskTypeArray* pTaskArray = signal->pSigCfg->onUpdateTasks;
 102              		.loc 3 323 0
 103 0042 0F4B     		ldr	r3, .L11+4
 104 0044 9B68     		ldr	r3, [r3, #8]
 105 0046 5D69     		ldr	r5, [r3, #20]
 106              	.LVL12:
 324:.\source\rte/sc_engine.h **** 
 325:.\source\rte/sc_engine.h ****    if (0 != signal->pSigCfg->evOnUpdate && NULL != pTaskArray){
 107              		.loc 3 325 0
 108 0048 9B68     		ldr	r3, [r3, #8]
 109 004a 73B1     		cbz	r3, .L5
 110 004c 3DB9     		cbnz	r5, .L9
 111 004e 0CE0     		b	.L5
 112              	.LVL13:
 113              	.L7:
 114              	.LBB24:
 326:.\source\rte/sc_engine.h ****       for( taskNum=0 ; taskNum < signal->pSigCfg->onUpdateTaskCount ;taskNum++){
 327:.\source\rte/sc_engine.h **** 		  
 328:.\source\rte/sc_engine.h ****           TaskType task = (*pTaskArray)[taskNum];
 329:.\source\rte/sc_engine.h **** 	      SetEvent( task, signal->pSigCfg->evOnUpdate);
 115              		.loc 3 329 0
 116 0050 9968     		ldr	r1, [r3, #8]
 117 0052 55F82400 		ldr	r0, [r5, r4, lsl #2]
 118 0056 FFF7FEFF 		bl	EE_oo_SetEvent
 119              	.LVL14:
 120              	.LBE24:
 326:.\source\rte/sc_engine.h ****       for( taskNum=0 ; taskNum < signal->pSigCfg->onUpdateTaskCount ;taskNum++){
 121              		.loc 3 326 0
 122 005a 0134     		adds	r4, r4, #1
 123              	.LVL15:
 124 005c 00E0     		b	.L6
 125              	.LVL16:
 126              	.L9:
 325:.\source\rte/sc_engine.h ****       for( taskNum=0 ; taskNum < signal->pSigCfg->onUpdateTaskCount ;taskNum++){
 127              		.loc 3 325 0
 128 005e 0024     		movs	r4, #0
 129              	.LVL17:
 130              	.L6:
 326:.\source\rte/sc_engine.h ****       for( taskNum=0 ; taskNum < signal->pSigCfg->onUpdateTaskCount ;taskNum++){
 131              		.loc 3 326 0
 132 0060 074B     		ldr	r3, .L11+4
ARM GAS  C:\Users\zakis\AppData\Local\Temp\cceUSJe3.s 			page 15


 133 0062 9B68     		ldr	r3, [r3, #8]
 134 0064 1A69     		ldr	r2, [r3, #16]
 135 0066 9442     		cmp	r4, r2
 136 0068 F2D3     		bcc	.L7
 137              	.LVL18:
 138              	.L5:
 139              	.LBE23:
 140              	.LBE22:
 141              	.LBB25:
 142              	.LBB26:
 330:.\source\rte/sc_engine.h ****       }
 331:.\source\rte/sc_engine.h ****    }
 332:.\source\rte/sc_engine.h **** 
 333:.\source\rte/sc_engine.h ****    return ret;
 334:.\source\rte/sc_engine.h **** }                                                                                                  
 335:.\source\rte/sc_engine.h ****                                                                                                    
 336:.\source\rte/sc_engine.h ****                                                                                                    
 337:.\source\rte/sc_engine.h **** /**************************************************************************************************
 338:.\source\rte/sc_engine.h **** /* Call functions to the connected drivers																			*/
 339:.\source\rte/sc_engine.h **** /**************************************************************************************************
 340:.\source\rte/sc_engine.h **** 
 341:.\source\rte/sc_engine.h ****                                                                                                    
 342:.\source\rte/sc_engine.h **** /**
 343:.\source\rte/sc_engine.h ****  *  Calls the connected driver interface to get a new value.
 344:.\source\rte/sc_engine.h ****  *
 345:.\source\rte/sc_engine.h ****  * @param SC_ENGINE_t * const signal: Pointer to the signal object
 346:.\source\rte/sc_engine.h ****  * @return  RC_t: Return value of the driver call
 347:.\source\rte/sc_engine.h ****  *
 348:.\source\rte/sc_engine.h ****  */
 349:.\source\rte/sc_engine.h **** inline RC_t RTE_SC_ENGINE_pullPort( SC_ENGINE_t * const signal )
 350:.\source\rte/sc_engine.h **** {                                                                                                  
 351:.\source\rte/sc_engine.h ****    RC_t ret = RC_SUCCESS;
 352:.\source\rte/sc_engine.h **** 
 353:.\source\rte/sc_engine.h ****                                                                                                    
 354:.\source\rte/sc_engine.h ****    if ( NULL != signal->pSigCfg->inDriver )
 355:.\source\rte/sc_engine.h ****    {
 356:.\source\rte/sc_engine.h **** 	  SC_ENGINE_data_t value = signal->value;
 357:.\source\rte/sc_engine.h ****       ret = signal->pSigCfg->inDriver(&value);
 358:.\source\rte/sc_engine.h ****                                                                                                    
 359:.\source\rte/sc_engine.h ****       if ( ret == RC_SUCCESS )                                                                     
 360:.\source\rte/sc_engine.h ****       {
 361:.\source\rte/sc_engine.h ****     	  //Critical Section
 362:.\source\rte/sc_engine.h ****     	  RTE_SC_ENGINE_set(signal, value);
 363:.\source\rte/sc_engine.h ****       }
 364:.\source\rte/sc_engine.h ****       else
 365:.\source\rte/sc_engine.h ****       {
 366:.\source\rte/sc_engine.h **** 		  //Signal is invalid. Error event (if present) will be fired
 367:.\source\rte/sc_engine.h **** 		  RTE_SC_ENGINE_setStatus(signal, RTE_SIGNALSTATUS_INVALID);
 368:.\source\rte/sc_engine.h ****       }
 369:.\source\rte/sc_engine.h **** 
 370:.\source\rte/sc_engine.h ****    }                                                                                               
 371:.\source\rte/sc_engine.h ****                                                                                                    
 372:.\source\rte/sc_engine.h ****    return ret;                                                                                     
 373:.\source\rte/sc_engine.h **** }                                                                                                  
 374:.\source\rte/sc_engine.h ****                                                                                                    
 375:.\source\rte/sc_engine.h **** /**
 376:.\source\rte/sc_engine.h ****  *  Calls the connected driver interfaces to send a value. Value will not be sent if it is INVALID.
ARM GAS  C:\Users\zakis\AppData\Local\Temp\cceUSJe3.s 			page 16


 377:.\source\rte/sc_engine.h ****  *
 378:.\source\rte/sc_engine.h ****  * @param SC_ENGINE_t * const signal: Pointer to the signal object
 379:.\source\rte/sc_engine.h ****  * @return  RC_t: Return value of the driver call
 380:.\source\rte/sc_engine.h ****  *
 381:.\source\rte/sc_engine.h ****  **/
 382:.\source\rte/sc_engine.h **** inline RC_t RTE_SC_ENGINE_pushPort( const SC_ENGINE_t * const signal )
 383:.\source\rte/sc_engine.h **** {                                                                                                  
 384:.\source\rte/sc_engine.h ****    RC_t ret = RC_ERROR;
 385:.\source\rte/sc_engine.h **** 
 386:.\source\rte/sc_engine.h ****    if (RTE_SIGNALSTATUS_VALID == signal->status)
 143              		.loc 3 386 0
 144 006a 054B     		ldr	r3, .L11+4
 145 006c 5B78     		ldrb	r3, [r3, #1]	@ zero_extendqisi2
 146 006e 022B     		cmp	r3, #2
 147 0070 03D1     		bne	.L1
 387:.\source\rte/sc_engine.h ****    {
 388:.\source\rte/sc_engine.h **** 	   ret = signal->pSigCfg->outDriver(&(signal->value));
 148              		.loc 3 388 0
 149 0072 0348     		ldr	r0, .L11+4
 150 0074 8368     		ldr	r3, [r0, #8]
 151 0076 5B68     		ldr	r3, [r3, #4]
 152 0078 9847     		blx	r3
 153              	.LVL19:
 154              	.L1:
 155 007a 38BD     		pop	{r3, r4, r5, pc}
 156              	.LVL20:
 157              	.L12:
 158              		.align	2
 159              	.L11:
 160 007c 00000000 		.word	SO_SPEED_signal
 161 0080 00000000 		.word	SO_ENGINE_signal
 162              	.LBE26:
 163              	.LBE25:
 164              		.cfi_endproc
 165              	.LFE165:
 166              		.size	OUTPUT_setEngine_run, .-OUTPUT_setEngine_run
 167              		.section	.text.OUTPUT_setBrakeLight_run,"ax",%progbits
 168              		.align	2
 169              		.global	OUTPUT_setBrakeLight_run
 170              		.thumb
 171              		.thumb_func
 172              		.type	OUTPUT_setBrakeLight_run, %function
 173              	OUTPUT_setBrakeLight_run:
 174              	.LFB166:
  57:source\asw/swc_output.c ****     } else {
  58:source\asw/swc_output.c ****         engine.m_engineValue = 0;
  59:source\asw/swc_output.c ****     }
  60:source\asw/swc_output.c ****     
  61:source\asw/swc_output.c ****     RTE_SC_ENGINE_set(&SO_ENGINE_signal, engine);
  62:source\asw/swc_output.c ****     RC_t error = RTE_SC_ENGINE_pushPort(&SO_ENGINE_signal);
  63:source\asw/swc_output.c **** 
  64:source\asw/swc_output.c ****     /* USER CODE END OUTPUT_setEngine_run */
  65:source\asw/swc_output.c **** }
  66:source\asw/swc_output.c **** 
  67:source\asw/swc_output.c **** /*
  68:source\asw/swc_output.c ****  * component: swc_output
  69:source\asw/swc_output.c ****  * cycletime: 0
ARM GAS  C:\Users\zakis\AppData\Local\Temp\cceUSJe3.s 			page 17


  70:source\asw/swc_output.c ****  * description: Sets LED according to brake condition
  71:source\asw/swc_output.c ****  * events: ev_speed_onData
  72:source\asw/swc_output.c ****  * name: OUTPUT_setBrakeLight_run
  73:source\asw/swc_output.c ****  * shortname: setBrakeLight
  74:source\asw/swc_output.c ****  * signalIN: so_speed
  75:source\asw/swc_output.c ****  * signalOUT: so_brakelight
  76:source\asw/swc_output.c ****  * task: tsk_io
  77:source\asw/swc_output.c ****  */
  78:source\asw/swc_output.c **** void OUTPUT_setBrakeLight_run(RTE_event ev){
 175              		.loc 1 78 0
 176              		.cfi_startproc
 177              		@ args = 0, pretend = 0, frame = 8
 178              		@ frame_needed = 0, uses_anonymous_args = 0
 179              	.LVL21:
 180 0000 30B5     		push	{r4, r5, lr}
 181              		.cfi_def_cfa_offset 12
 182              		.cfi_offset 4, -12
 183              		.cfi_offset 5, -8
 184              		.cfi_offset 14, -4
 185 0002 83B0     		sub	sp, sp, #12
 186              		.cfi_def_cfa_offset 24
 187              	.LVL22:
 188              	.LBB27:
 189              	.LBB28:
 190              		.loc 2 277 0
 191 0004 214B     		ldr	r3, .L23
 192 0006 1B78     		ldrb	r3, [r3]	@ zero_extendqisi2
 193 0008 8DF80430 		strb	r3, [sp, #4]
 194              	.LVL23:
 195              	.LBE28:
 196              	.LBE27:
  79:source\asw/swc_output.c **** 	
  80:source\asw/swc_output.c **** 	/* USER CODE START OUTPUT_setBrakeLight_run */
  81:source\asw/swc_output.c ****     
  82:source\asw/swc_output.c **** //    UART_Logs_PutString("In Brakelight\n");
  83:source\asw/swc_output.c ****     
  84:source\asw/swc_output.c ****     
  85:source\asw/swc_output.c ****     volatile SC_SPEED_data_t speed = RTE_SC_SPEED_get(&SO_SPEED_signal);
  86:source\asw/swc_output.c ****     SC_BRAKELIGHT_data_t brake = SC_BRAKELIGHT_INIT_DATA;
 197              		.loc 1 86 0
 198 000c 4FF00003 		mov	r3, #0
 199              	.LVL24:
  87:source\asw/swc_output.c ****     if (speed.m_speedValue <= 0){
 200              		.loc 1 87 0
 201 0010 9DF80420 		ldrb	r2, [sp, #4]	@ zero_extendqisi2
 202 0014 12F0FF0F 		tst	r2, #255
 203 0018 01D1     		bne	.L14
  88:source\asw/swc_output.c ****         brake.m_brakeValue = TRUE;
 204              		.loc 1 88 0
 205 001a 4FF00103 		mov	r3, #1
 206              	.L14:
 207              	.LVL25:
 208 001e 1C46     		mov	r4, r3
 209              	.LVL26:
 210              	.LBB29:
 211              	.LBB30:
 212              		.file 4 ".\\source\\rte/sc_brakelight.h"
ARM GAS  C:\Users\zakis\AppData\Local\Temp\cceUSJe3.s 			page 18


   1:.\source\rte/sc_brakelight.h **** 
   2:.\source\rte/sc_brakelight.h **** 
   3:.\source\rte/sc_brakelight.h **** /**
   4:.\source\rte/sc_brakelight.h ****  *  file    SC_BRAKELIGHT_signal.h
   5:.\source\rte/sc_brakelight.h ****  *
   6:.\source\rte/sc_brakelight.h ****  *  brief   signal base class for signal sc_brakelight
   7:.\source\rte/sc_brakelight.h ****  *
   8:.\source\rte/sc_brakelight.h ****  *  author  Autogenerated, Peter Fromm       <peter.fromm@h-da.de>
   9:.\source\rte/sc_brakelight.h ****  *
  10:.\source\rte/sc_brakelight.h ****  * description: Signal for brake
  11:.\source\rte/sc_brakelight.h ****  * name: sc_brakelight
  12:.\source\rte/sc_brakelight.h ****  * shortname: brakelight
  13:.\source\rte/sc_brakelight.h ****  *
  14:.\source\rte/sc_brakelight.h ****  */
  15:.\source\rte/sc_brakelight.h **** 
  16:.\source\rte/sc_brakelight.h **** 
  17:.\source\rte/sc_brakelight.h **** 
  18:.\source\rte/sc_brakelight.h **** #ifndef SC_BRAKELIGHT_SIGNAL_H_INCLUDED
  19:.\source\rte/sc_brakelight.h **** #define SC_BRAKELIGHT_SIGNAL_H_INCLUDED
  20:.\source\rte/sc_brakelight.h **** 
  21:.\source\rte/sc_brakelight.h **** /*================================================[ public includes  ]=============================
  22:.\source\rte/sc_brakelight.h **** #include "global.h"
  23:.\source\rte/sc_brakelight.h **** #include "project.h"
  24:.\source\rte/sc_brakelight.h **** #include "rte.h"
  25:.\source\rte/sc_brakelight.h **** #include "rte_types.h"
  26:.\source\rte/sc_brakelight.h **** 
  27:.\source\rte/sc_brakelight.h **** #include "sc_brakelight_type.h"
  28:.\source\rte/sc_brakelight.h **** 
  29:.\source\rte/sc_brakelight.h **** 
  30:.\source\rte/sc_brakelight.h **** /**************************************************************************************************
  31:.\source\rte/sc_brakelight.h **** /* The driver API block																						*/
  32:.\source\rte/sc_brakelight.h **** /**************************************************************************************************
  33:.\source\rte/sc_brakelight.h ****                                                                                                    
  34:.\source\rte/sc_brakelight.h **** /**
  35:.\source\rte/sc_brakelight.h ****  *  Definition of function types for driver interfaces.
  36:.\source\rte/sc_brakelight.h ****  *  I-Port
  37:.\source\rte/sc_brakelight.h ****  */
  38:.\source\rte/sc_brakelight.h **** typedef RC_t (*SC_BRAKELIGHT_driverIn_t)(SC_BRAKELIGHT_data_t * const);
  39:.\source\rte/sc_brakelight.h **** 
  40:.\source\rte/sc_brakelight.h **** /**
  41:.\source\rte/sc_brakelight.h ****  *  Definition of function types for driver interfaces.
  42:.\source\rte/sc_brakelight.h ****  *  O-Port
  43:.\source\rte/sc_brakelight.h ****  */
  44:.\source\rte/sc_brakelight.h **** typedef RC_t (*SC_BRAKELIGHT_driverOut_t)( const SC_BRAKELIGHT_data_t * const);
  45:.\source\rte/sc_brakelight.h **** 
  46:.\source\rte/sc_brakelight.h **** 
  47:.\source\rte/sc_brakelight.h **** /**************************************************************************************************
  48:.\source\rte/sc_brakelight.h **** /* The signal configuration API block																				*/
  49:.\source\rte/sc_brakelight.h **** /**************************************************************************************************
  50:.\source\rte/sc_brakelight.h **** 
  51:.\source\rte/sc_brakelight.h **** /**
  52:.\source\rte/sc_brakelight.h ****  * Instances of the struct SC_BRAKELIGHT_cfg_t represent the signal object configuration.
  53:.\source\rte/sc_brakelight.h ****  */
  54:.\source\rte/sc_brakelight.h **** struct SC_BRAKELIGHT_cfg_s
  55:.\source\rte/sc_brakelight.h **** {
  56:.\source\rte/sc_brakelight.h ****     /**
  57:.\source\rte/sc_brakelight.h ****      * Function pointer to the input driver
ARM GAS  C:\Users\zakis\AppData\Local\Temp\cceUSJe3.s 			page 19


  58:.\source\rte/sc_brakelight.h ****      */
  59:.\source\rte/sc_brakelight.h ****     SC_BRAKELIGHT_driverIn_t const inDriver;
  60:.\source\rte/sc_brakelight.h **** 
  61:.\source\rte/sc_brakelight.h ****     /**
  62:.\source\rte/sc_brakelight.h ****      * Function pointer to the output driver table
  63:.\source\rte/sc_brakelight.h ****      */
  64:.\source\rte/sc_brakelight.h ****    SC_BRAKELIGHT_driverOut_t const outDriver;
  65:.\source\rte/sc_brakelight.h ****    
  66:.\source\rte/sc_brakelight.h ****     /**
  67:.\source\rte/sc_brakelight.h ****      * Event onUpdate
  68:.\source\rte/sc_brakelight.h ****      */
  69:.\source\rte/sc_brakelight.h ****     EventMaskType const evOnUpdate;
  70:.\source\rte/sc_brakelight.h ****     
  71:.\source\rte/sc_brakelight.h ****     
  72:.\source\rte/sc_brakelight.h ****     /**
  73:.\source\rte/sc_brakelight.h ****      * Event onError
  74:.\source\rte/sc_brakelight.h ****      */
  75:.\source\rte/sc_brakelight.h ****     EventMaskType const evOnError;
  76:.\source\rte/sc_brakelight.h ****     
  77:.\source\rte/sc_brakelight.h ****     /**
  78:.\source\rte/sc_brakelight.h ****      * Task Count onUpdate
  79:.\source\rte/sc_brakelight.h ****      */
  80:.\source\rte/sc_brakelight.h ****     size_t const onUpdateTaskCount;
  81:.\source\rte/sc_brakelight.h **** 
  82:.\source\rte/sc_brakelight.h ****     /**
  83:.\source\rte/sc_brakelight.h ****      * Task List onUpdate
  84:.\source\rte/sc_brakelight.h ****      */
  85:.\source\rte/sc_brakelight.h ****     TaskTypeArray* const onUpdateTasks;
  86:.\source\rte/sc_brakelight.h ****     
  87:.\source\rte/sc_brakelight.h ****     /**
  88:.\source\rte/sc_brakelight.h ****      * Task Count onError
  89:.\source\rte/sc_brakelight.h ****      */
  90:.\source\rte/sc_brakelight.h ****     size_t const onErrorTaskCount;
  91:.\source\rte/sc_brakelight.h **** 
  92:.\source\rte/sc_brakelight.h ****     /**
  93:.\source\rte/sc_brakelight.h ****      * Task List onError
  94:.\source\rte/sc_brakelight.h ****      */
  95:.\source\rte/sc_brakelight.h ****     TaskTypeArray* const onErrorTasks;
  96:.\source\rte/sc_brakelight.h **** 	
  97:.\source\rte/sc_brakelight.h **** 	
  98:.\source\rte/sc_brakelight.h **** 	/**
  99:.\source\rte/sc_brakelight.h **** 	 * Ressourse is active? We need an additional boolean as a ressource value 0 is valid.
 100:.\source\rte/sc_brakelight.h **** 	 */
 101:.\source\rte/sc_brakelight.h **** 	 boolean_t const resourceActive;
 102:.\source\rte/sc_brakelight.h **** 	 
 103:.\source\rte/sc_brakelight.h **** 	/**
 104:.\source\rte/sc_brakelight.h **** 	 * Ressourse 
 105:.\source\rte/sc_brakelight.h **** 	 */
 106:.\source\rte/sc_brakelight.h **** 	 ResourceType const resource;
 107:.\source\rte/sc_brakelight.h **** 
 108:.\source\rte/sc_brakelight.h **** };                                                                                                 
 109:.\source\rte/sc_brakelight.h **** typedef const struct SC_BRAKELIGHT_cfg_s SC_BRAKELIGHT_cfg_t;
 110:.\source\rte/sc_brakelight.h ****                               
 111:.\source\rte/sc_brakelight.h **** /**************************************************************************************************
 112:.\source\rte/sc_brakelight.h **** /* The data interface block																							*/
 113:.\source\rte/sc_brakelight.h **** /**************************************************************************************************
 114:.\source\rte/sc_brakelight.h **** 
ARM GAS  C:\Users\zakis\AppData\Local\Temp\cceUSJe3.s 			page 20


 115:.\source\rte/sc_brakelight.h ****                                                                                                    
 116:.\source\rte/sc_brakelight.h **** 							  
 117:.\source\rte/sc_brakelight.h **** /**
 118:.\source\rte/sc_brakelight.h ****  * Instances of the struct SC_BRAKELIGHT_t represent the signal objects.
 119:.\source\rte/sc_brakelight.h ****  * A signal object contains the current application value 'value' as well as relevant meta data.
 120:.\source\rte/sc_brakelight.h ****  */
 121:.\source\rte/sc_brakelight.h **** struct SC_BRAKELIGHT_s
 122:.\source\rte/sc_brakelight.h **** {                                                                                                  
 123:.\source\rte/sc_brakelight.h **** 
 124:.\source\rte/sc_brakelight.h **** 	/**
 125:.\source\rte/sc_brakelight.h **** 	 * Data buffer for the application value
 126:.\source\rte/sc_brakelight.h **** 	 */
 127:.\source\rte/sc_brakelight.h ****     SC_BRAKELIGHT_data_t value;
 128:.\source\rte/sc_brakelight.h **** 
 129:.\source\rte/sc_brakelight.h ****     /**
 130:.\source\rte/sc_brakelight.h ****      * Current signal status
 131:.\source\rte/sc_brakelight.h ****      */
 132:.\source\rte/sc_brakelight.h ****     RTE_signalStatus_t status;
 133:.\source\rte/sc_brakelight.h **** 
 134:.\source\rte/sc_brakelight.h ****     /**
 135:.\source\rte/sc_brakelight.h ****      * Current age of the signal (in calling cycles)
 136:.\source\rte/sc_brakelight.h ****      */
 137:.\source\rte/sc_brakelight.h ****     uint32_t age;
 138:.\source\rte/sc_brakelight.h **** 
 139:.\source\rte/sc_brakelight.h ****     /**
 140:.\source\rte/sc_brakelight.h ****      * Pointer to the signal configuration
 141:.\source\rte/sc_brakelight.h ****      */
 142:.\source\rte/sc_brakelight.h **** 	const SC_BRAKELIGHT_cfg_t * const    pSigCfg;
 143:.\source\rte/sc_brakelight.h **** 
 144:.\source\rte/sc_brakelight.h **** };                                                                                                 
 145:.\source\rte/sc_brakelight.h **** typedef struct SC_BRAKELIGHT_s SC_BRAKELIGHT_t;
 146:.\source\rte/sc_brakelight.h **** 
 147:.\source\rte/sc_brakelight.h **** /**************************************************************************************************
 148:.\source\rte/sc_brakelight.h **** /* Signal initialisation   																							*/
 149:.\source\rte/sc_brakelight.h **** /**************************************************************************************************
 150:.\source\rte/sc_brakelight.h **** 
 151:.\source\rte/sc_brakelight.h **** /**
 152:.\source\rte/sc_brakelight.h ****  * Initializes a signal instance with a passed init value.
 153:.\source\rte/sc_brakelight.h ****  * Depending on the configured conversion or scaling function the raw_value will be calculated.
 154:.\source\rte/sc_brakelight.h ****  * Signal status will change from RTE_SIGNALSTATUS_STARTUP to RTE_SIGNALSTATUS_INITIALIZED.
 155:.\source\rte/sc_brakelight.h ****  *
 156:.\source\rte/sc_brakelight.h ****  * @param  SC_BRAKELIGHT_t * const signal: Pointer to the signal object which will be initialised
 157:.\source\rte/sc_brakelight.h ****  * @return RC_t: standard return code, currently only RC_SUCCESS
 158:.\source\rte/sc_brakelight.h ****  *
 159:.\source\rte/sc_brakelight.h ****  **/
 160:.\source\rte/sc_brakelight.h **** inline RC_t RTE_SC_BRAKELIGHT_init( SC_BRAKELIGHT_t * const signal )
 161:.\source\rte/sc_brakelight.h **** {                                                                                                  
 162:.\source\rte/sc_brakelight.h **** 
 163:.\source\rte/sc_brakelight.h ****    RC_t ret = RC_SUCCESS;
 164:.\source\rte/sc_brakelight.h **** 
 165:.\source\rte/sc_brakelight.h ****    //Set value and raw value
 166:.\source\rte/sc_brakelight.h ****    signal->value  = SC_BRAKELIGHT_INIT_DATA;
 167:.\source\rte/sc_brakelight.h ****    signal->age    = 0;
 168:.\source\rte/sc_brakelight.h ****    signal->status = RTE_SIGNALSTATUS_INITIALIZED;
 169:.\source\rte/sc_brakelight.h **** 
 170:.\source\rte/sc_brakelight.h ****    return ret;
 171:.\source\rte/sc_brakelight.h **** }
ARM GAS  C:\Users\zakis\AppData\Local\Temp\cceUSJe3.s 			page 21


 172:.\source\rte/sc_brakelight.h **** 
 173:.\source\rte/sc_brakelight.h **** /**************************************************************************************************
 174:.\source\rte/sc_brakelight.h **** /* Status and timeout control																						*/
 175:.\source\rte/sc_brakelight.h **** /**************************************************************************************************
 176:.\source\rte/sc_brakelight.h **** 
 177:.\source\rte/sc_brakelight.h **** /**
 178:.\source\rte/sc_brakelight.h ****  *  Returns the current signal status of the passed signal instance.
 179:.\source\rte/sc_brakelight.h ****  *
 180:.\source\rte/sc_brakelight.h ****  * @param  SC_BRAKELIGHT_t * const signal: Pointer to the signal object
 181:.\source\rte/sc_brakelight.h ****  * @return  sig_status_t: The current signal status
 182:.\source\rte/sc_brakelight.h ****  *
 183:.\source\rte/sc_brakelight.h ****  **/
 184:.\source\rte/sc_brakelight.h **** inline RTE_signalStatus_t RTE_SC_BRAKELIGHT_getStatus( const SC_BRAKELIGHT_t * const signal )
 185:.\source\rte/sc_brakelight.h **** {
 186:.\source\rte/sc_brakelight.h ****    return signal->status;
 187:.\source\rte/sc_brakelight.h **** }
 188:.\source\rte/sc_brakelight.h **** 
 189:.\source\rte/sc_brakelight.h **** 
 190:.\source\rte/sc_brakelight.h **** /**
 191:.\source\rte/sc_brakelight.h ****  *  Sets a new signal status of the passed signal instance by passing the new status.
 192:.\source\rte/sc_brakelight.h ****  *
 193:.\source\rte/sc_brakelight.h ****  * @param  SC_BRAKELIGHT_t * const signal: Pointer to the signal object
 194:.\source\rte/sc_brakelight.h ****  * @param  const sig_status_t status: New signal status
 195:.\source\rte/sc_brakelight.h ****  * @return RC_t: standard return code, currently only RC_SUCCESS
 196:.\source\rte/sc_brakelight.h ****  *
 197:.\source\rte/sc_brakelight.h ****  */
 198:.\source\rte/sc_brakelight.h **** inline RC_t RTE_SC_BRAKELIGHT_setStatus( SC_BRAKELIGHT_t * const signal, const RTE_signalStatus_t s
 199:.\source\rte/sc_brakelight.h **** {
 200:.\source\rte/sc_brakelight.h ****    signal->status = status;
 201:.\source\rte/sc_brakelight.h ****    size_t taskNum=0;
 202:.\source\rte/sc_brakelight.h ****    
 203:.\source\rte/sc_brakelight.h ****    //Fire error events in case of invalid state
 204:.\source\rte/sc_brakelight.h ****    if (signal->status == RTE_SIGNALSTATUS_INVALID)
 205:.\source\rte/sc_brakelight.h ****    {
 206:.\source\rte/sc_brakelight.h **** 	    //Pointer to the Taskarray, containing the tasks receiving the onUpdate events
 207:.\source\rte/sc_brakelight.h **** 		TaskTypeArray* pTaskArray = signal->pSigCfg->onErrorTasks;
 208:.\source\rte/sc_brakelight.h **** 
 209:.\source\rte/sc_brakelight.h **** 		if (0 != signal->pSigCfg->evOnError && NULL != pTaskArray){
 210:.\source\rte/sc_brakelight.h **** 			for( taskNum=0 ; taskNum < signal->pSigCfg->onErrorTaskCount ;taskNum++){
 211:.\source\rte/sc_brakelight.h **** 				TaskType task = (*pTaskArray)[taskNum];
 212:.\source\rte/sc_brakelight.h **** 				SetEvent( task, signal->pSigCfg->evOnError);
 213:.\source\rte/sc_brakelight.h **** 			}
 214:.\source\rte/sc_brakelight.h **** 		}
 215:.\source\rte/sc_brakelight.h ****    }
 216:.\source\rte/sc_brakelight.h ****    
 217:.\source\rte/sc_brakelight.h ****    return RC_SUCCESS;
 218:.\source\rte/sc_brakelight.h **** }
 219:.\source\rte/sc_brakelight.h **** 
 220:.\source\rte/sc_brakelight.h **** 
 221:.\source\rte/sc_brakelight.h **** /**
 222:.\source\rte/sc_brakelight.h ****  * Returns the count of refreshing trials (refresh, set or set_raw) that failed.
 223:.\source\rte/sc_brakelight.h ****  * Prerquisite: The signal is refreshed cyclically
 224:.\source\rte/sc_brakelight.h ****  *
 225:.\source\rte/sc_brakelight.h ****  * @param  SC_BRAKELIGHT_t * const signal: Pointer to the signal object
 226:.\source\rte/sc_brakelight.h ****  * @return uint32_t: Number of cycles since the signal has been updated for the last time
 227:.\source\rte/sc_brakelight.h ****  */
 228:.\source\rte/sc_brakelight.h **** inline uint32_t RTE_SC_BRAKELIGHT_getAge( const SC_BRAKELIGHT_t * const signal )
ARM GAS  C:\Users\zakis\AppData\Local\Temp\cceUSJe3.s 			page 22


 229:.\source\rte/sc_brakelight.h **** {
 230:.\source\rte/sc_brakelight.h ****    return signal->age;
 231:.\source\rte/sc_brakelight.h **** }
 232:.\source\rte/sc_brakelight.h **** 
 233:.\source\rte/sc_brakelight.h **** /**
 234:.\source\rte/sc_brakelight.h ****  * Should be called by application or driver if no new value can be provided.
 235:.\source\rte/sc_brakelight.h ****  * @param  SC_BRAKELIGHT_t * const signal: Pointer to the signal object
 236:.\source\rte/sc_brakelight.h ****  * @param uint32_t increment: incrementvalue, typically in [ms]
 237:.\source\rte/sc_brakelight.h ****  * @return void
 238:.\source\rte/sc_brakelight.h ****  */
 239:.\source\rte/sc_brakelight.h **** inline void RTE_SC_BRAKELIGHT_incAge(  SC_BRAKELIGHT_t * const signal , uint32_t increment)
 240:.\source\rte/sc_brakelight.h **** {
 241:.\source\rte/sc_brakelight.h **** 	   //Hack....
 242:.\source\rte/sc_brakelight.h **** 	   if ( 0xFFFF0000 > (signal->age + increment) )
 243:.\source\rte/sc_brakelight.h **** 	   {
 244:.\source\rte/sc_brakelight.h **** 	      signal->age += increment;
 245:.\source\rte/sc_brakelight.h **** 	   }
 246:.\source\rte/sc_brakelight.h **** }
 247:.\source\rte/sc_brakelight.h **** 
 248:.\source\rte/sc_brakelight.h **** 
 249:.\source\rte/sc_brakelight.h **** /**************************************************************************************************
 250:.\source\rte/sc_brakelight.h **** /* Application Data read/write Interface																			*/
 251:.\source\rte/sc_brakelight.h **** /**************************************************************************************************
 252:.\source\rte/sc_brakelight.h **** 
 253:.\source\rte/sc_brakelight.h **** /**
 254:.\source\rte/sc_brakelight.h ****  * Returns the current application value as pointer to the signal payload.
 255:.\source\rte/sc_brakelight.h ****  * Careful: This is not threadsafe!!!
 256:.\source\rte/sc_brakelight.h ****  *
 257:.\source\rte/sc_brakelight.h ****  * @param  SC_BRAKELIGHT_t * const signal: Pointer to the signal object
 258:.\source\rte/sc_brakelight.h ****  * @return sc_brakelight_data_t*: pointer to the current value of the application data buffer
 259:.\source\rte/sc_brakelight.h ****  *
 260:.\source\rte/sc_brakelight.h ****  **/
 261:.\source\rte/sc_brakelight.h **** inline SC_BRAKELIGHT_data_t* RTE_SC_BRAKELIGHT_getPtr( SC_BRAKELIGHT_t * const signal )
 262:.\source\rte/sc_brakelight.h **** {               
 263:.\source\rte/sc_brakelight.h ****    //Todo: Critical region cannot be protected using return values																						
 264:.\source\rte/sc_brakelight.h ****    return &(signal->value);                                                                        
 265:.\source\rte/sc_brakelight.h **** }
 266:.\source\rte/sc_brakelight.h **** 
 267:.\source\rte/sc_brakelight.h **** /**
 268:.\source\rte/sc_brakelight.h ****  * Returns the current application value of the passed signal instance.
 269:.\source\rte/sc_brakelight.h ****  *
 270:.\source\rte/sc_brakelight.h ****  * @param  SC_BRAKELIGHT_t * const signal: Pointer to the signal object
 271:.\source\rte/sc_brakelight.h ****  * @return sc_brakelight_data_t: current value of the application data buffer
 272:.\source\rte/sc_brakelight.h ****  *
 273:.\source\rte/sc_brakelight.h ****  **/
 274:.\source\rte/sc_brakelight.h **** inline SC_BRAKELIGHT_data_t RTE_SC_BRAKELIGHT_get( const SC_BRAKELIGHT_t * const signal )
 275:.\source\rte/sc_brakelight.h **** {               
 276:.\source\rte/sc_brakelight.h ****    //Todo: Critical region cannot be protected using return values																						
 277:.\source\rte/sc_brakelight.h ****    return signal->value;                                                                           
 278:.\source\rte/sc_brakelight.h **** }                                                                                                  
 279:.\source\rte/sc_brakelight.h ****                                                                                                    
 280:.\source\rte/sc_brakelight.h **** /**
 281:.\source\rte/sc_brakelight.h ****  * Returns the current application value of the passed signal instance threadsafe.
 282:.\source\rte/sc_brakelight.h ****  *
 283:.\source\rte/sc_brakelight.h ****  * @param  SC_BRAKELIGHT_t * const signal: Pointer to the signal object
 284:.\source\rte/sc_brakelight.h ****  * @param  SC_BRAKELIGHT_data_t* data: Pointer to the return data Pointer to the signal object
 285:.\source\rte/sc_brakelight.h ****  * @return RC_SUCCESS
ARM GAS  C:\Users\zakis\AppData\Local\Temp\cceUSJe3.s 			page 23


 286:.\source\rte/sc_brakelight.h ****  *
 287:.\source\rte/sc_brakelight.h ****  **/
 288:.\source\rte/sc_brakelight.h **** inline RC_t RTE_SC_BRAKELIGHT_getThreadSafe( const SC_BRAKELIGHT_t * const signal, SC_BRAKELIGHT_da
 289:.\source\rte/sc_brakelight.h **** {    
 290:.\source\rte/sc_brakelight.h ****    if (TRUE == signal->pSigCfg->resourceActive) GetResource(signal->pSigCfg->resource);
 291:.\source\rte/sc_brakelight.h ****    *data = signal->value;
 292:.\source\rte/sc_brakelight.h ****    if (TRUE == signal->pSigCfg->resourceActive) ReleaseResource(signal->pSigCfg->resource);        
 293:.\source\rte/sc_brakelight.h **** 
 294:.\source\rte/sc_brakelight.h ****    return RC_SUCCESS;                                                                   
 295:.\source\rte/sc_brakelight.h ****    
 296:.\source\rte/sc_brakelight.h **** }                                                                                                  
 297:.\source\rte/sc_brakelight.h ****                                                                                                    
 298:.\source\rte/sc_brakelight.h **** /**
 299:.\source\rte/sc_brakelight.h ****  * Sets a new application value to the passed signal instance by passing the new value.
 300:.\source\rte/sc_brakelight.h ****  * The corresponding driver raw value will be calculated immediately by using the default conversio
 301:.\source\rte/sc_brakelight.h ****  * signal specific scaling function.
 302:.\source\rte/sc_brakelight.h ****  * The signal age will be set to 0 and the new status will be 'RTE_SIGNALSTATUS_VALID'.
 303:.\source\rte/sc_brakelight.h ****  *
 304:.\source\rte/sc_brakelight.h ****  * @param  SC_BRAKELIGHT_t * const signal: Pointer to the signal object
 305:.\source\rte/sc_brakelight.h ****  * @param  sc_brakelight_data_t const value: value for the application data buffer
 306:.\source\rte/sc_brakelight.h ****  * @return RC_t: standard return code, currently only RC_SUCCESS
 307:.\source\rte/sc_brakelight.h ****  *
 308:.\source\rte/sc_brakelight.h ****  **/
 309:.\source\rte/sc_brakelight.h **** inline RC_t RTE_SC_BRAKELIGHT_set(SC_BRAKELIGHT_t * const signal, const SC_BRAKELIGHT_data_t value 
 310:.\source\rte/sc_brakelight.h **** {
 311:.\source\rte/sc_brakelight.h **** 
 312:.\source\rte/sc_brakelight.h ****    RC_t ret = RC_SUCCESS;
 313:.\source\rte/sc_brakelight.h ****    size_t taskNum=0;
 314:.\source\rte/sc_brakelight.h **** 
 315:.\source\rte/sc_brakelight.h **** 
 316:.\source\rte/sc_brakelight.h ****    if (TRUE == signal->pSigCfg->resourceActive) GetResource(signal->pSigCfg->resource);
 213              		.loc 4 316 0
 214 0020 1B4B     		ldr	r3, .L23+4
 215              	.LVL27:
 216 0022 9B68     		ldr	r3, [r3, #8]
 217 0024 93F82020 		ldrb	r2, [r3, #32]	@ zero_extendqisi2
 218 0028 012A     		cmp	r2, #1
 219 002a 02D1     		bne	.L15
 220 002c 586A     		ldr	r0, [r3, #36]
 221              	.LVL28:
 222 002e FFF7FEFF 		bl	EE_oo_GetResource
 223              	.LVL29:
 224              	.L15:
 317:.\source\rte/sc_brakelight.h ****    signal->value  = value;
 225              		.loc 4 317 0
 226 0032 174B     		ldr	r3, .L23+4
 227              	.LVL30:
 228 0034 1C70     		strb	r4, [r3]
 318:.\source\rte/sc_brakelight.h ****    signal->age    = 0;
 229              		.loc 4 318 0
 230 0036 0022     		movs	r2, #0
 231 0038 5A60     		str	r2, [r3, #4]
 319:.\source\rte/sc_brakelight.h ****    signal->status = RTE_SIGNALSTATUS_VALID;
 232              		.loc 4 319 0
 233 003a 0222     		movs	r2, #2
 234 003c 5A70     		strb	r2, [r3, #1]
 320:.\source\rte/sc_brakelight.h ****    if (TRUE == signal->pSigCfg->resourceActive) ReleaseResource(signal->pSigCfg->resource);
ARM GAS  C:\Users\zakis\AppData\Local\Temp\cceUSJe3.s 			page 24


 235              		.loc 4 320 0
 236 003e 9B68     		ldr	r3, [r3, #8]
 237 0040 93F82020 		ldrb	r2, [r3, #32]	@ zero_extendqisi2
 238 0044 012A     		cmp	r2, #1
 239 0046 02D1     		bne	.L16
 240 0048 586A     		ldr	r0, [r3, #36]
 241 004a FFF7FEFF 		bl	EE_oo_ReleaseResource
 242              	.LVL31:
 243              	.L16:
 321:.\source\rte/sc_brakelight.h **** 
 322:.\source\rte/sc_brakelight.h ****    //Pointer to the Taskarray, containing the tasks receiving the onUpdate events
 323:.\source\rte/sc_brakelight.h ****    TaskTypeArray* pTaskArray = signal->pSigCfg->onUpdateTasks;
 244              		.loc 4 323 0
 245 004e 104B     		ldr	r3, .L23+4
 246 0050 9B68     		ldr	r3, [r3, #8]
 247 0052 5D69     		ldr	r5, [r3, #20]
 248              	.LVL32:
 324:.\source\rte/sc_brakelight.h **** 
 325:.\source\rte/sc_brakelight.h ****    if (0 != signal->pSigCfg->evOnUpdate && NULL != pTaskArray){
 249              		.loc 4 325 0
 250 0054 9B68     		ldr	r3, [r3, #8]
 251 0056 73B1     		cbz	r3, .L17
 252 0058 3DB9     		cbnz	r5, .L21
 253 005a 0CE0     		b	.L17
 254              	.LVL33:
 255              	.L19:
 256              	.LBB31:
 326:.\source\rte/sc_brakelight.h ****       for( taskNum=0 ; taskNum < signal->pSigCfg->onUpdateTaskCount ;taskNum++){
 327:.\source\rte/sc_brakelight.h **** 		  
 328:.\source\rte/sc_brakelight.h ****           TaskType task = (*pTaskArray)[taskNum];
 329:.\source\rte/sc_brakelight.h **** 	      SetEvent( task, signal->pSigCfg->evOnUpdate);
 257              		.loc 4 329 0
 258 005c 9968     		ldr	r1, [r3, #8]
 259 005e 55F82400 		ldr	r0, [r5, r4, lsl #2]
 260 0062 FFF7FEFF 		bl	EE_oo_SetEvent
 261              	.LVL34:
 262              	.LBE31:
 326:.\source\rte/sc_brakelight.h ****       for( taskNum=0 ; taskNum < signal->pSigCfg->onUpdateTaskCount ;taskNum++){
 263              		.loc 4 326 0
 264 0066 0134     		adds	r4, r4, #1
 265              	.LVL35:
 266 0068 00E0     		b	.L18
 267              	.LVL36:
 268              	.L21:
 325:.\source\rte/sc_brakelight.h ****       for( taskNum=0 ; taskNum < signal->pSigCfg->onUpdateTaskCount ;taskNum++){
 269              		.loc 4 325 0
 270 006a 0024     		movs	r4, #0
 271              	.LVL37:
 272              	.L18:
 326:.\source\rte/sc_brakelight.h ****       for( taskNum=0 ; taskNum < signal->pSigCfg->onUpdateTaskCount ;taskNum++){
 273              		.loc 4 326 0
 274 006c 084B     		ldr	r3, .L23+4
 275 006e 9B68     		ldr	r3, [r3, #8]
 276 0070 1A69     		ldr	r2, [r3, #16]
 277 0072 9442     		cmp	r4, r2
 278 0074 F2D3     		bcc	.L19
 279              	.LVL38:
ARM GAS  C:\Users\zakis\AppData\Local\Temp\cceUSJe3.s 			page 25


 280              	.L17:
 281              	.LBE30:
 282              	.LBE29:
 283              	.LBB32:
 284              	.LBB33:
 330:.\source\rte/sc_brakelight.h ****       }
 331:.\source\rte/sc_brakelight.h ****    }
 332:.\source\rte/sc_brakelight.h **** 
 333:.\source\rte/sc_brakelight.h ****    return ret;
 334:.\source\rte/sc_brakelight.h **** }                                                                                                  
 335:.\source\rte/sc_brakelight.h ****                                                                                                    
 336:.\source\rte/sc_brakelight.h ****                                                                                                    
 337:.\source\rte/sc_brakelight.h **** /**************************************************************************************************
 338:.\source\rte/sc_brakelight.h **** /* Call functions to the connected drivers																			*/
 339:.\source\rte/sc_brakelight.h **** /**************************************************************************************************
 340:.\source\rte/sc_brakelight.h **** 
 341:.\source\rte/sc_brakelight.h ****                                                                                                    
 342:.\source\rte/sc_brakelight.h **** /**
 343:.\source\rte/sc_brakelight.h ****  *  Calls the connected driver interface to get a new value.
 344:.\source\rte/sc_brakelight.h ****  *
 345:.\source\rte/sc_brakelight.h ****  * @param SC_BRAKELIGHT_t * const signal: Pointer to the signal object
 346:.\source\rte/sc_brakelight.h ****  * @return  RC_t: Return value of the driver call
 347:.\source\rte/sc_brakelight.h ****  *
 348:.\source\rte/sc_brakelight.h ****  */
 349:.\source\rte/sc_brakelight.h **** inline RC_t RTE_SC_BRAKELIGHT_pullPort( SC_BRAKELIGHT_t * const signal )
 350:.\source\rte/sc_brakelight.h **** {                                                                                                  
 351:.\source\rte/sc_brakelight.h ****    RC_t ret = RC_SUCCESS;
 352:.\source\rte/sc_brakelight.h **** 
 353:.\source\rte/sc_brakelight.h ****                                                                                                    
 354:.\source\rte/sc_brakelight.h ****    if ( NULL != signal->pSigCfg->inDriver )
 355:.\source\rte/sc_brakelight.h ****    {
 356:.\source\rte/sc_brakelight.h **** 	  SC_BRAKELIGHT_data_t value = signal->value;
 357:.\source\rte/sc_brakelight.h ****       ret = signal->pSigCfg->inDriver(&value);
 358:.\source\rte/sc_brakelight.h ****                                                                                                    
 359:.\source\rte/sc_brakelight.h ****       if ( ret == RC_SUCCESS )                                                                     
 360:.\source\rte/sc_brakelight.h ****       {
 361:.\source\rte/sc_brakelight.h ****     	  //Critical Section
 362:.\source\rte/sc_brakelight.h ****     	  RTE_SC_BRAKELIGHT_set(signal, value);
 363:.\source\rte/sc_brakelight.h ****       }
 364:.\source\rte/sc_brakelight.h ****       else
 365:.\source\rte/sc_brakelight.h ****       {
 366:.\source\rte/sc_brakelight.h **** 		  //Signal is invalid. Error event (if present) will be fired
 367:.\source\rte/sc_brakelight.h **** 		  RTE_SC_BRAKELIGHT_setStatus(signal, RTE_SIGNALSTATUS_INVALID);
 368:.\source\rte/sc_brakelight.h ****       }
 369:.\source\rte/sc_brakelight.h **** 
 370:.\source\rte/sc_brakelight.h ****    }                                                                                               
 371:.\source\rte/sc_brakelight.h ****                                                                                                    
 372:.\source\rte/sc_brakelight.h ****    return ret;                                                                                     
 373:.\source\rte/sc_brakelight.h **** }                                                                                                  
 374:.\source\rte/sc_brakelight.h ****                                                                                                    
 375:.\source\rte/sc_brakelight.h **** /**
 376:.\source\rte/sc_brakelight.h ****  *  Calls the connected driver interfaces to send a value. Value will not be sent if it is INVALID.
 377:.\source\rte/sc_brakelight.h ****  *
 378:.\source\rte/sc_brakelight.h ****  * @param SC_BRAKELIGHT_t * const signal: Pointer to the signal object
 379:.\source\rte/sc_brakelight.h ****  * @return  RC_t: Return value of the driver call
 380:.\source\rte/sc_brakelight.h ****  *
 381:.\source\rte/sc_brakelight.h ****  **/
ARM GAS  C:\Users\zakis\AppData\Local\Temp\cceUSJe3.s 			page 26


 382:.\source\rte/sc_brakelight.h **** inline RC_t RTE_SC_BRAKELIGHT_pushPort( const SC_BRAKELIGHT_t * const signal )
 383:.\source\rte/sc_brakelight.h **** {                                                                                                  
 384:.\source\rte/sc_brakelight.h ****    RC_t ret = RC_ERROR;
 385:.\source\rte/sc_brakelight.h **** 
 386:.\source\rte/sc_brakelight.h ****    if (RTE_SIGNALSTATUS_VALID == signal->status)
 285              		.loc 4 386 0
 286 0076 064B     		ldr	r3, .L23+4
 287 0078 5B78     		ldrb	r3, [r3, #1]	@ zero_extendqisi2
 288 007a 022B     		cmp	r3, #2
 289 007c 03D1     		bne	.L13
 387:.\source\rte/sc_brakelight.h ****    {
 388:.\source\rte/sc_brakelight.h **** 	   ret = signal->pSigCfg->outDriver(&(signal->value));
 290              		.loc 4 388 0
 291 007e 0448     		ldr	r0, .L23+4
 292 0080 8368     		ldr	r3, [r0, #8]
 293 0082 5B68     		ldr	r3, [r3, #4]
 294 0084 9847     		blx	r3
 295              	.LVL39:
 296              	.L13:
 297              	.LBE33:
 298              	.LBE32:
  89:source\asw/swc_output.c ****     }
  90:source\asw/swc_output.c ****     RTE_SC_BRAKELIGHT_set(&SO_BRAKELIGHT_signal, brake);
  91:source\asw/swc_output.c ****     RC_t error = RTE_SC_BRAKELIGHT_pushPort(&SO_BRAKELIGHT_signal);
  92:source\asw/swc_output.c **** 
  93:source\asw/swc_output.c ****     /* USER CODE END OUTPUT_setBrakeLight_run */
  94:source\asw/swc_output.c **** }
 299              		.loc 1 94 0
 300 0086 03B0     		add	sp, sp, #12
 301              		.cfi_def_cfa_offset 12
 302              		@ sp needed
 303 0088 30BD     		pop	{r4, r5, pc}
 304              	.LVL40:
 305              	.L24:
 306 008a 00BF     		.align	2
 307              	.L23:
 308 008c 00000000 		.word	SO_SPEED_signal
 309 0090 00000000 		.word	SO_BRAKELIGHT_signal
 310              		.cfi_endproc
 311              	.LFE166:
 312              		.size	OUTPUT_setBrakeLight_run, .-OUTPUT_setBrakeLight_run
 313              		.text
 314              	.Letext0:
 315              		.file 5 "c:\\program files (x86)\\cypress\\psoc creator\\4.4\\psoc creator\\import\\gnu\\arm\\5.4.
 316              		.file 6 "c:\\program files (x86)\\cypress\\psoc creator\\4.4\\psoc creator\\import\\gnu\\arm\\5.4.
 317              		.file 7 "c:\\program files (x86)\\cypress\\psoc creator\\4.4\\psoc creator\\import\\gnu\\arm\\5.4.
 318              		.file 8 "Generated_Source\\PSoC5/ErikaOS_common_ee_types.inc"
 319              		.file 9 "Generated_Source\\PSoC5/ErikaOS_cortex_mx_ee_cpu.inc"
 320              		.file 10 "Generated_Source\\PSoC5/ErikaOS_ee_oo_common.inc"
 321              		.file 11 ".\\source\\bsw/global.h"
 322              		.file 12 ".\\source\\rte/rte_types.h"
 323              		.file 13 ".\\source\\rte/rte.h"
 324              		.file 14 ".\\source\\rte/sc_speed_type.h"
 325              		.file 15 ".\\source\\rte/sc_engine_type.h"
 326              		.file 16 ".\\source\\rte/sc_brakelight_type.h"
 327              		.file 17 "Generated_Source\\PSoC5/ErikaOS_ee_oo_intfunc.inc"
 328              		.file 18 "Generated_Source\\PSoC5/ErikaOS_cortex_mx_ee_context.inc"
ARM GAS  C:\Users\zakis\AppData\Local\Temp\cceUSJe3.s 			page 27


 329              		.file 19 "Generated_Source\\PSoC5/ErikaOS_common_ee_primitives.inc"
 330              		.file 20 "Generated_Source\\PSoC5/core_cm3.h"
 331              		.file 21 ".\\source\\rte/sp_common.h"
 332              		.file 22 "Generated_Source\\PSoC5/ErikaOS_ee_oo_kernel.inc"