ARM GAS  C:\Users\zakis\AppData\Local\Temp\cc3mPN01.s 			page 1


   1              		.syntax unified
   2              		.cpu cortex-m3
   3              		.fpu softvfp
   4              		.eabi_attribute 20, 1
   5              		.eabi_attribute 21, 1
   6              		.eabi_attribute 23, 3
   7              		.eabi_attribute 24, 1
   8              		.eabi_attribute 25, 1
   9              		.eabi_attribute 26, 1
  10              		.eabi_attribute 30, 1
  11              		.eabi_attribute 34, 1
  12              		.eabi_attribute 18, 4
  13              		.thumb
  14              		.syntax unified
  15              		.file	"swc_control.c"
  16              		.text
  17              	.Ltext0:
  18              		.cfi_sections	.debug_frame
  19              		.section	.text.CONTROL_calcControl_run,"ax",%progbits
  20              		.align	2
  21              		.global	CONTROL_calcControl_run
  22              		.thumb
  23              		.thumb_func
  24              		.type	CONTROL_calcControl_run, %function
  25              	CONTROL_calcControl_run:
  26              	.LFB154:
  27              		.file 1 "source\\asw\\swc_control.c"
   1:source\asw/swc_control.c **** /*
   2:source\asw/swc_control.c ****  * Filename: swc_control.c
   3:source\asw/swc_control.c ****  *
   4:source\asw/swc_control.c ****  * Author: Autogenerated by H-DA RTE Generator, (c) Prof. Fromm
   5:source\asw/swc_control.c ****  *
   6:source\asw/swc_control.c ****  * description: calculation control
   7:source\asw/swc_control.c ****  * name: swc_control
   8:source\asw/swc_control.c ****  * shortname: control
   9:source\asw/swc_control.c ****  *
  10:source\asw/swc_control.c ****  */
  11:source\asw/swc_control.c **** 
  12:source\asw/swc_control.c **** #include "project.h"
  13:source\asw/swc_control.c **** #include "global.h"
  14:source\asw/swc_control.c **** #include "rte.h"
  15:source\asw/swc_control.c **** #include "rte_types.h"
  16:source\asw/swc_control.c **** #include "swc_control.h"
  17:source\asw/swc_control.c **** 
  18:source\asw/swc_control.c **** 
  19:source\asw/swc_control.c **** 
  20:source\asw/swc_control.c **** /* USER CODE START SWC_CONTROL_INCLUDE */
  21:source\asw/swc_control.c **** 
  22:source\asw/swc_control.c **** /* USER CODE END SWC_CONTROL_INCLUDE */
  23:source\asw/swc_control.c **** 
  24:source\asw/swc_control.c **** 
  25:source\asw/swc_control.c **** #include "sp_common.h"
  26:source\asw/swc_control.c **** 
  27:source\asw/swc_control.c **** /* USER CODE START SWC_CONTROL_USERDEFINITIONS */
  28:source\asw/swc_control.c **** 
  29:source\asw/swc_control.c **** /* USER CODE END SWC_CONTROL_USERDEFINITIONS */
  30:source\asw/swc_control.c **** 
ARM GAS  C:\Users\zakis\AppData\Local\Temp\cc3mPN01.s 			page 2


  31:source\asw/swc_control.c **** 
  32:source\asw/swc_control.c **** 
  33:source\asw/swc_control.c **** /*
  34:source\asw/swc_control.c ****  * component: swc_control
  35:source\asw/swc_control.c ****  * cycletime: 0
  36:source\asw/swc_control.c ****  * description: Runnable
  37:source\asw/swc_control.c ****  * events: ev_joystick_onData
  38:source\asw/swc_control.c ****  * name: CONTROL_calcControl_run
  39:source\asw/swc_control.c ****  * shortname: calcControl
  40:source\asw/swc_control.c ****  * signalIN: so_joystick
  41:source\asw/swc_control.c ****  * signalOUT: so_speed
  42:source\asw/swc_control.c ****  * task: tsk_control
  43:source\asw/swc_control.c ****  */
  44:source\asw/swc_control.c **** void CONTROL_calcControl_run(RTE_event ev){
  28              		.loc 1 44 0
  29              		.cfi_startproc
  30              		@ args = 0, pretend = 0, frame = 0
  31              		@ frame_needed = 0, uses_anonymous_args = 0
  32              	.LVL0:
  33 0000 38B5     		push	{r3, r4, r5, lr}
  34              		.cfi_def_cfa_offset 16
  35              		.cfi_offset 3, -16
  36              		.cfi_offset 4, -12
  37              		.cfi_offset 5, -8
  38              		.cfi_offset 14, -4
  39              	.LVL1:
  45:source\asw/swc_control.c **** 	
  46:source\asw/swc_control.c **** 	/* USER CODE START CONTROL_calcControl_run */
  47:source\asw/swc_control.c ****     
  48:source\asw/swc_control.c ****     //UART_Logs_PutString("Got Joystick Value, Update Speed\n");
  49:source\asw/swc_control.c ****     
  50:source\asw/swc_control.c ****     SC_JOYSTICK_data_t joystickData = RTE_SC_JOYSTICK_get(&SO_JOYSTICK_signal);
  51:source\asw/swc_control.c ****     SC_SPEED_data_t speed = SC_SPEED_INIT_DATA;
  40              		.loc 1 51 0
  41 0002 4FF00001 		mov	r1, #0
  42              	.LVL2:
  52:source\asw/swc_control.c ****     
  53:source\asw/swc_control.c ****     if (joystickData.m_joystickValueX > 0){
  43              		.loc 1 53 0
  44 0006 124B     		ldr	r3, .L8
  45 0008 93F90030 		ldrsb	r3, [r3]
  46 000c 002B     		cmp	r3, #0
  47 000e 00DD     		ble	.L2
  54:source\asw/swc_control.c ****         speed.m_speed = 2 * joystickData.m_joystickValueX;
  48              		.loc 1 54 0
  49 0010 5900     		lsls	r1, r3, #1
  50              	.L2:
  51              	.LVL3:
  52              	.LBB7:
  53              	.LBB8:
  54              		.file 2 ".\\source\\rte/sc_speed.h"
   1:.\source\rte/sc_speed.h **** 
   2:.\source\rte/sc_speed.h **** 
   3:.\source\rte/sc_speed.h **** /**
   4:.\source\rte/sc_speed.h ****  *  file    SC_SPEED_signal.h
   5:.\source\rte/sc_speed.h ****  *
   6:.\source\rte/sc_speed.h ****  *  brief   signal base class for signal sc_speed
ARM GAS  C:\Users\zakis\AppData\Local\Temp\cc3mPN01.s 			page 3


   7:.\source\rte/sc_speed.h ****  *
   8:.\source\rte/sc_speed.h ****  *  author  Autogenerated, Peter Fromm       <peter.fromm@h-da.de>
   9:.\source\rte/sc_speed.h ****  *
  10:.\source\rte/sc_speed.h ****  * description: Speed data type
  11:.\source\rte/sc_speed.h ****  * name: sc_speed
  12:.\source\rte/sc_speed.h ****  * shortname: speed
  13:.\source\rte/sc_speed.h ****  *
  14:.\source\rte/sc_speed.h ****  */
  15:.\source\rte/sc_speed.h **** 
  16:.\source\rte/sc_speed.h **** 
  17:.\source\rte/sc_speed.h **** 
  18:.\source\rte/sc_speed.h **** #ifndef SC_SPEED_SIGNAL_H_INCLUDED
  19:.\source\rte/sc_speed.h **** #define SC_SPEED_SIGNAL_H_INCLUDED
  20:.\source\rte/sc_speed.h **** 
  21:.\source\rte/sc_speed.h **** /*================================================[ public includes  ]=============================
  22:.\source\rte/sc_speed.h **** #include "global.h"
  23:.\source\rte/sc_speed.h **** #include "project.h"
  24:.\source\rte/sc_speed.h **** #include "rte.h"
  25:.\source\rte/sc_speed.h **** #include "rte_types.h"
  26:.\source\rte/sc_speed.h **** 
  27:.\source\rte/sc_speed.h **** #include "sc_speed_type.h"
  28:.\source\rte/sc_speed.h **** 
  29:.\source\rte/sc_speed.h **** 
  30:.\source\rte/sc_speed.h **** /**************************************************************************************************
  31:.\source\rte/sc_speed.h **** /* The driver API block																						*/
  32:.\source\rte/sc_speed.h **** /**************************************************************************************************
  33:.\source\rte/sc_speed.h ****                                                                                                    
  34:.\source\rte/sc_speed.h **** /**
  35:.\source\rte/sc_speed.h ****  *  Definition of function types for driver interfaces.
  36:.\source\rte/sc_speed.h ****  *  I-Port
  37:.\source\rte/sc_speed.h ****  */
  38:.\source\rte/sc_speed.h **** typedef RC_t (*SC_SPEED_driverIn_t)(SC_SPEED_data_t * const);
  39:.\source\rte/sc_speed.h **** 
  40:.\source\rte/sc_speed.h **** /**
  41:.\source\rte/sc_speed.h ****  *  Definition of function types for driver interfaces.
  42:.\source\rte/sc_speed.h ****  *  O-Port
  43:.\source\rte/sc_speed.h ****  */
  44:.\source\rte/sc_speed.h **** typedef RC_t (*SC_SPEED_driverOut_t)( const SC_SPEED_data_t * const);
  45:.\source\rte/sc_speed.h **** 
  46:.\source\rte/sc_speed.h **** 
  47:.\source\rte/sc_speed.h **** /**************************************************************************************************
  48:.\source\rte/sc_speed.h **** /* The signal configuration API block																				*/
  49:.\source\rte/sc_speed.h **** /**************************************************************************************************
  50:.\source\rte/sc_speed.h **** 
  51:.\source\rte/sc_speed.h **** /**
  52:.\source\rte/sc_speed.h ****  * Instances of the struct SC_SPEED_cfg_t represent the signal object configuration.
  53:.\source\rte/sc_speed.h ****  */
  54:.\source\rte/sc_speed.h **** struct SC_SPEED_cfg_s
  55:.\source\rte/sc_speed.h **** {
  56:.\source\rte/sc_speed.h ****     /**
  57:.\source\rte/sc_speed.h ****      * Function pointer to the input driver
  58:.\source\rte/sc_speed.h ****      */
  59:.\source\rte/sc_speed.h ****     SC_SPEED_driverIn_t const inDriver;
  60:.\source\rte/sc_speed.h **** 
  61:.\source\rte/sc_speed.h ****     /**
  62:.\source\rte/sc_speed.h ****      * Function pointer to the output driver table
  63:.\source\rte/sc_speed.h ****      */
ARM GAS  C:\Users\zakis\AppData\Local\Temp\cc3mPN01.s 			page 4


  64:.\source\rte/sc_speed.h ****    SC_SPEED_driverOut_t const outDriver;
  65:.\source\rte/sc_speed.h ****    
  66:.\source\rte/sc_speed.h ****     /**
  67:.\source\rte/sc_speed.h ****      * Event onUpdate
  68:.\source\rte/sc_speed.h ****      */
  69:.\source\rte/sc_speed.h ****     EventMaskType const evOnUpdate;
  70:.\source\rte/sc_speed.h ****     
  71:.\source\rte/sc_speed.h ****     
  72:.\source\rte/sc_speed.h ****     /**
  73:.\source\rte/sc_speed.h ****      * Event onError
  74:.\source\rte/sc_speed.h ****      */
  75:.\source\rte/sc_speed.h ****     EventMaskType const evOnError;
  76:.\source\rte/sc_speed.h ****     
  77:.\source\rte/sc_speed.h ****     /**
  78:.\source\rte/sc_speed.h ****      * Task Count onUpdate
  79:.\source\rte/sc_speed.h ****      */
  80:.\source\rte/sc_speed.h ****     size_t const onUpdateTaskCount;
  81:.\source\rte/sc_speed.h **** 
  82:.\source\rte/sc_speed.h ****     /**
  83:.\source\rte/sc_speed.h ****      * Task List onUpdate
  84:.\source\rte/sc_speed.h ****      */
  85:.\source\rte/sc_speed.h ****     TaskTypeArray* const onUpdateTasks;
  86:.\source\rte/sc_speed.h ****     
  87:.\source\rte/sc_speed.h ****     /**
  88:.\source\rte/sc_speed.h ****      * Task Count onError
  89:.\source\rte/sc_speed.h ****      */
  90:.\source\rte/sc_speed.h ****     size_t const onErrorTaskCount;
  91:.\source\rte/sc_speed.h **** 
  92:.\source\rte/sc_speed.h ****     /**
  93:.\source\rte/sc_speed.h ****      * Task List onError
  94:.\source\rte/sc_speed.h ****      */
  95:.\source\rte/sc_speed.h ****     TaskTypeArray* const onErrorTasks;
  96:.\source\rte/sc_speed.h **** 	
  97:.\source\rte/sc_speed.h **** 	
  98:.\source\rte/sc_speed.h **** 	/**
  99:.\source\rte/sc_speed.h **** 	 * Ressourse is active? We need an additional boolean as a ressource value 0 is valid.
 100:.\source\rte/sc_speed.h **** 	 */
 101:.\source\rte/sc_speed.h **** 	 boolean_t const resourceActive;
 102:.\source\rte/sc_speed.h **** 	 
 103:.\source\rte/sc_speed.h **** 	/**
 104:.\source\rte/sc_speed.h **** 	 * Ressourse 
 105:.\source\rte/sc_speed.h **** 	 */
 106:.\source\rte/sc_speed.h **** 	 ResourceType const resource;
 107:.\source\rte/sc_speed.h **** 
 108:.\source\rte/sc_speed.h **** };                                                                                                 
 109:.\source\rte/sc_speed.h **** typedef const struct SC_SPEED_cfg_s SC_SPEED_cfg_t;
 110:.\source\rte/sc_speed.h ****                               
 111:.\source\rte/sc_speed.h **** /**************************************************************************************************
 112:.\source\rte/sc_speed.h **** /* The data interface block																							*/
 113:.\source\rte/sc_speed.h **** /**************************************************************************************************
 114:.\source\rte/sc_speed.h **** 
 115:.\source\rte/sc_speed.h ****                                                                                                    
 116:.\source\rte/sc_speed.h **** 							  
 117:.\source\rte/sc_speed.h **** /**
 118:.\source\rte/sc_speed.h ****  * Instances of the struct SC_SPEED_t represent the signal objects.
 119:.\source\rte/sc_speed.h ****  * A signal object contains the current application value 'value' as well as relevant meta data.
 120:.\source\rte/sc_speed.h ****  */
ARM GAS  C:\Users\zakis\AppData\Local\Temp\cc3mPN01.s 			page 5


 121:.\source\rte/sc_speed.h **** struct SC_SPEED_s
 122:.\source\rte/sc_speed.h **** {                                                                                                  
 123:.\source\rte/sc_speed.h **** 
 124:.\source\rte/sc_speed.h **** 	/**
 125:.\source\rte/sc_speed.h **** 	 * Data buffer for the application value
 126:.\source\rte/sc_speed.h **** 	 */
 127:.\source\rte/sc_speed.h ****     SC_SPEED_data_t value;
 128:.\source\rte/sc_speed.h **** 
 129:.\source\rte/sc_speed.h ****     /**
 130:.\source\rte/sc_speed.h ****      * Current signal status
 131:.\source\rte/sc_speed.h ****      */
 132:.\source\rte/sc_speed.h ****     RTE_signalStatus_t status;
 133:.\source\rte/sc_speed.h **** 
 134:.\source\rte/sc_speed.h ****     /**
 135:.\source\rte/sc_speed.h ****      * Current age of the signal (in calling cycles)
 136:.\source\rte/sc_speed.h ****      */
 137:.\source\rte/sc_speed.h ****     uint32_t age;
 138:.\source\rte/sc_speed.h **** 
 139:.\source\rte/sc_speed.h ****     /**
 140:.\source\rte/sc_speed.h ****      * Pointer to the signal configuration
 141:.\source\rte/sc_speed.h ****      */
 142:.\source\rte/sc_speed.h **** 	const SC_SPEED_cfg_t * const    pSigCfg;
 143:.\source\rte/sc_speed.h **** 
 144:.\source\rte/sc_speed.h **** };                                                                                                 
 145:.\source\rte/sc_speed.h **** typedef struct SC_SPEED_s SC_SPEED_t;
 146:.\source\rte/sc_speed.h **** 
 147:.\source\rte/sc_speed.h **** /**************************************************************************************************
 148:.\source\rte/sc_speed.h **** /* Signal initialisation   																							*/
 149:.\source\rte/sc_speed.h **** /**************************************************************************************************
 150:.\source\rte/sc_speed.h **** 
 151:.\source\rte/sc_speed.h **** /**
 152:.\source\rte/sc_speed.h ****  * Initializes a signal instance with a passed init value.
 153:.\source\rte/sc_speed.h ****  * Depending on the configured conversion or scaling function the raw_value will be calculated.
 154:.\source\rte/sc_speed.h ****  * Signal status will change from RTE_SIGNALSTATUS_STARTUP to RTE_SIGNALSTATUS_INITIALIZED.
 155:.\source\rte/sc_speed.h ****  *
 156:.\source\rte/sc_speed.h ****  * @param  SC_SPEED_t * const signal: Pointer to the signal object which will be initialised
 157:.\source\rte/sc_speed.h ****  * @return RC_t: standard return code, currently only RC_SUCCESS
 158:.\source\rte/sc_speed.h ****  *
 159:.\source\rte/sc_speed.h ****  **/
 160:.\source\rte/sc_speed.h **** inline RC_t RTE_SC_SPEED_init( SC_SPEED_t * const signal )
 161:.\source\rte/sc_speed.h **** {                                                                                                  
 162:.\source\rte/sc_speed.h **** 
 163:.\source\rte/sc_speed.h ****    RC_t ret = RC_SUCCESS;
 164:.\source\rte/sc_speed.h **** 
 165:.\source\rte/sc_speed.h ****    //Set value and raw value
 166:.\source\rte/sc_speed.h ****    signal->value  = SC_SPEED_INIT_DATA;
 167:.\source\rte/sc_speed.h ****    signal->age    = 0;
 168:.\source\rte/sc_speed.h ****    signal->status = RTE_SIGNALSTATUS_INITIALIZED;
 169:.\source\rte/sc_speed.h **** 
 170:.\source\rte/sc_speed.h ****    return ret;
 171:.\source\rte/sc_speed.h **** }
 172:.\source\rte/sc_speed.h **** 
 173:.\source\rte/sc_speed.h **** /**************************************************************************************************
 174:.\source\rte/sc_speed.h **** /* Status and timeout control																						*/
 175:.\source\rte/sc_speed.h **** /**************************************************************************************************
 176:.\source\rte/sc_speed.h **** 
 177:.\source\rte/sc_speed.h **** /**
ARM GAS  C:\Users\zakis\AppData\Local\Temp\cc3mPN01.s 			page 6


 178:.\source\rte/sc_speed.h ****  *  Returns the current signal status of the passed signal instance.
 179:.\source\rte/sc_speed.h ****  *
 180:.\source\rte/sc_speed.h ****  * @param  SC_SPEED_t * const signal: Pointer to the signal object
 181:.\source\rte/sc_speed.h ****  * @return  sig_status_t: The current signal status
 182:.\source\rte/sc_speed.h ****  *
 183:.\source\rte/sc_speed.h ****  **/
 184:.\source\rte/sc_speed.h **** inline RTE_signalStatus_t RTE_SC_SPEED_getStatus( const SC_SPEED_t * const signal )
 185:.\source\rte/sc_speed.h **** {
 186:.\source\rte/sc_speed.h ****    return signal->status;
 187:.\source\rte/sc_speed.h **** }
 188:.\source\rte/sc_speed.h **** 
 189:.\source\rte/sc_speed.h **** 
 190:.\source\rte/sc_speed.h **** /**
 191:.\source\rte/sc_speed.h ****  *  Sets a new signal status of the passed signal instance by passing the new status.
 192:.\source\rte/sc_speed.h ****  *
 193:.\source\rte/sc_speed.h ****  * @param  SC_SPEED_t * const signal: Pointer to the signal object
 194:.\source\rte/sc_speed.h ****  * @param  const sig_status_t status: New signal status
 195:.\source\rte/sc_speed.h ****  * @return RC_t: standard return code, currently only RC_SUCCESS
 196:.\source\rte/sc_speed.h ****  *
 197:.\source\rte/sc_speed.h ****  */
 198:.\source\rte/sc_speed.h **** inline RC_t RTE_SC_SPEED_setStatus( SC_SPEED_t * const signal, const RTE_signalStatus_t status )
 199:.\source\rte/sc_speed.h **** {
 200:.\source\rte/sc_speed.h ****    signal->status = status;
 201:.\source\rte/sc_speed.h ****    size_t taskNum=0;
 202:.\source\rte/sc_speed.h ****    
 203:.\source\rte/sc_speed.h ****    //Fire error events in case of invalid state
 204:.\source\rte/sc_speed.h ****    if (signal->status == RTE_SIGNALSTATUS_INVALID)
 205:.\source\rte/sc_speed.h ****    {
 206:.\source\rte/sc_speed.h **** 	    //Pointer to the Taskarray, containing the tasks receiving the onUpdate events
 207:.\source\rte/sc_speed.h **** 		TaskTypeArray* pTaskArray = signal->pSigCfg->onErrorTasks;
 208:.\source\rte/sc_speed.h **** 
 209:.\source\rte/sc_speed.h **** 		if (0 != signal->pSigCfg->evOnError && NULL != pTaskArray){
 210:.\source\rte/sc_speed.h **** 			for( taskNum=0 ; taskNum < signal->pSigCfg->onErrorTaskCount ;taskNum++){
 211:.\source\rte/sc_speed.h **** 				TaskType task = (*pTaskArray)[taskNum];
 212:.\source\rte/sc_speed.h **** 				SetEvent( task, signal->pSigCfg->evOnError);
 213:.\source\rte/sc_speed.h **** 			}
 214:.\source\rte/sc_speed.h **** 		}
 215:.\source\rte/sc_speed.h ****    }
 216:.\source\rte/sc_speed.h ****    
 217:.\source\rte/sc_speed.h ****    return RC_SUCCESS;
 218:.\source\rte/sc_speed.h **** }
 219:.\source\rte/sc_speed.h **** 
 220:.\source\rte/sc_speed.h **** 
 221:.\source\rte/sc_speed.h **** /**
 222:.\source\rte/sc_speed.h ****  * Returns the count of refreshing trials (refresh, set or set_raw) that failed.
 223:.\source\rte/sc_speed.h ****  * Prerquisite: The signal is refreshed cyclically
 224:.\source\rte/sc_speed.h ****  *
 225:.\source\rte/sc_speed.h ****  * @param  SC_SPEED_t * const signal: Pointer to the signal object
 226:.\source\rte/sc_speed.h ****  * @return uint32_t: Number of cycles since the signal has been updated for the last time
 227:.\source\rte/sc_speed.h ****  */
 228:.\source\rte/sc_speed.h **** inline uint32_t RTE_SC_SPEED_getAge( const SC_SPEED_t * const signal )
 229:.\source\rte/sc_speed.h **** {
 230:.\source\rte/sc_speed.h ****    return signal->age;
 231:.\source\rte/sc_speed.h **** }
 232:.\source\rte/sc_speed.h **** 
 233:.\source\rte/sc_speed.h **** /**
 234:.\source\rte/sc_speed.h ****  * Should be called by application or driver if no new value can be provided.
ARM GAS  C:\Users\zakis\AppData\Local\Temp\cc3mPN01.s 			page 7


 235:.\source\rte/sc_speed.h ****  * @param  SC_SPEED_t * const signal: Pointer to the signal object
 236:.\source\rte/sc_speed.h ****  * @param uint32_t increment: incrementvalue, typically in [ms]
 237:.\source\rte/sc_speed.h ****  * @return void
 238:.\source\rte/sc_speed.h ****  */
 239:.\source\rte/sc_speed.h **** inline void RTE_SC_SPEED_incAge(  SC_SPEED_t * const signal , uint32_t increment)
 240:.\source\rte/sc_speed.h **** {
 241:.\source\rte/sc_speed.h **** 	   //Hack....
 242:.\source\rte/sc_speed.h **** 	   if ( 0xFFFF0000 > (signal->age + increment) )
 243:.\source\rte/sc_speed.h **** 	   {
 244:.\source\rte/sc_speed.h **** 	      signal->age += increment;
 245:.\source\rte/sc_speed.h **** 	   }
 246:.\source\rte/sc_speed.h **** }
 247:.\source\rte/sc_speed.h **** 
 248:.\source\rte/sc_speed.h **** 
 249:.\source\rte/sc_speed.h **** /**************************************************************************************************
 250:.\source\rte/sc_speed.h **** /* Application Data read/write Interface																			*/
 251:.\source\rte/sc_speed.h **** /**************************************************************************************************
 252:.\source\rte/sc_speed.h **** 
 253:.\source\rte/sc_speed.h **** /**
 254:.\source\rte/sc_speed.h ****  * Returns the current application value as pointer to the signal payload.
 255:.\source\rte/sc_speed.h ****  * Careful: This is not threadsafe!!!
 256:.\source\rte/sc_speed.h ****  *
 257:.\source\rte/sc_speed.h ****  * @param  SC_SPEED_t * const signal: Pointer to the signal object
 258:.\source\rte/sc_speed.h ****  * @return sc_speed_data_t*: pointer to the current value of the application data buffer
 259:.\source\rte/sc_speed.h ****  *
 260:.\source\rte/sc_speed.h ****  **/
 261:.\source\rte/sc_speed.h **** inline SC_SPEED_data_t* RTE_SC_SPEED_getPtr( SC_SPEED_t * const signal )
 262:.\source\rte/sc_speed.h **** {               
 263:.\source\rte/sc_speed.h ****    //Todo: Critical region cannot be protected using return values																						
 264:.\source\rte/sc_speed.h ****    return &(signal->value);                                                                        
 265:.\source\rte/sc_speed.h **** }
 266:.\source\rte/sc_speed.h **** 
 267:.\source\rte/sc_speed.h **** /**
 268:.\source\rte/sc_speed.h ****  * Returns the current application value of the passed signal instance.
 269:.\source\rte/sc_speed.h ****  *
 270:.\source\rte/sc_speed.h ****  * @param  SC_SPEED_t * const signal: Pointer to the signal object
 271:.\source\rte/sc_speed.h ****  * @return sc_speed_data_t: current value of the application data buffer
 272:.\source\rte/sc_speed.h ****  *
 273:.\source\rte/sc_speed.h ****  **/
 274:.\source\rte/sc_speed.h **** inline SC_SPEED_data_t RTE_SC_SPEED_get( const SC_SPEED_t * const signal )
 275:.\source\rte/sc_speed.h **** {               
 276:.\source\rte/sc_speed.h ****    //Todo: Critical region cannot be protected using return values																						
 277:.\source\rte/sc_speed.h ****    return signal->value;                                                                           
 278:.\source\rte/sc_speed.h **** }                                                                                                  
 279:.\source\rte/sc_speed.h ****                                                                                                    
 280:.\source\rte/sc_speed.h **** /**
 281:.\source\rte/sc_speed.h ****  * Returns the current application value of the passed signal instance threadsafe.
 282:.\source\rte/sc_speed.h ****  *
 283:.\source\rte/sc_speed.h ****  * @param  SC_SPEED_t * const signal: Pointer to the signal object
 284:.\source\rte/sc_speed.h ****  * @param  SC_SPEED_data_t* data: Pointer to the return data Pointer to the signal object
 285:.\source\rte/sc_speed.h ****  * @return RC_SUCCESS
 286:.\source\rte/sc_speed.h ****  *
 287:.\source\rte/sc_speed.h ****  **/
 288:.\source\rte/sc_speed.h **** inline RC_t RTE_SC_SPEED_getThreadSafe( const SC_SPEED_t * const signal, SC_SPEED_data_t * const da
 289:.\source\rte/sc_speed.h **** {    
 290:.\source\rte/sc_speed.h ****    if (TRUE == signal->pSigCfg->resourceActive) GetResource(signal->pSigCfg->resource);
 291:.\source\rte/sc_speed.h ****    *data = signal->value;
ARM GAS  C:\Users\zakis\AppData\Local\Temp\cc3mPN01.s 			page 8


 292:.\source\rte/sc_speed.h ****    if (TRUE == signal->pSigCfg->resourceActive) ReleaseResource(signal->pSigCfg->resource);        
 293:.\source\rte/sc_speed.h **** 
 294:.\source\rte/sc_speed.h ****    return RC_SUCCESS;                                                                   
 295:.\source\rte/sc_speed.h ****    
 296:.\source\rte/sc_speed.h **** }                                                                                                  
 297:.\source\rte/sc_speed.h ****                                                                                                    
 298:.\source\rte/sc_speed.h **** /**
 299:.\source\rte/sc_speed.h ****  * Sets a new application value to the passed signal instance by passing the new value.
 300:.\source\rte/sc_speed.h ****  * The corresponding driver raw value will be calculated immediately by using the default conversio
 301:.\source\rte/sc_speed.h ****  * signal specific scaling function.
 302:.\source\rte/sc_speed.h ****  * The signal age will be set to 0 and the new status will be 'RTE_SIGNALSTATUS_VALID'.
 303:.\source\rte/sc_speed.h ****  *
 304:.\source\rte/sc_speed.h ****  * @param  SC_SPEED_t * const signal: Pointer to the signal object
 305:.\source\rte/sc_speed.h ****  * @param  sc_speed_data_t const value: value for the application data buffer
 306:.\source\rte/sc_speed.h ****  * @return RC_t: standard return code, currently only RC_SUCCESS
 307:.\source\rte/sc_speed.h ****  *
 308:.\source\rte/sc_speed.h ****  **/
 309:.\source\rte/sc_speed.h **** inline RC_t RTE_SC_SPEED_set(SC_SPEED_t * const signal, const SC_SPEED_data_t value  )
 310:.\source\rte/sc_speed.h **** {
 311:.\source\rte/sc_speed.h **** 
 312:.\source\rte/sc_speed.h ****    RC_t ret = RC_SUCCESS;
 313:.\source\rte/sc_speed.h ****    size_t taskNum=0;
 314:.\source\rte/sc_speed.h **** 
 315:.\source\rte/sc_speed.h **** 
 316:.\source\rte/sc_speed.h ****    if (TRUE == signal->pSigCfg->resourceActive) GetResource(signal->pSigCfg->resource);
  55              		.loc 2 316 0
  56 0012 104B     		ldr	r3, .L8+4
  57 0014 9A68     		ldr	r2, [r3, #8]
  58              	.LVL4:
 317:.\source\rte/sc_speed.h ****    signal->value  = value;
  59              		.loc 2 317 0
  60 0016 1970     		strb	r1, [r3]
 318:.\source\rte/sc_speed.h ****    signal->age    = 0;
  61              		.loc 2 318 0
  62 0018 0021     		movs	r1, #0
  63              	.LVL5:
  64 001a 5960     		str	r1, [r3, #4]
 319:.\source\rte/sc_speed.h ****    signal->status = RTE_SIGNALSTATUS_VALID;
  65              		.loc 2 319 0
  66 001c 0221     		movs	r1, #2
  67 001e 5970     		strb	r1, [r3, #1]
 320:.\source\rte/sc_speed.h ****    if (TRUE == signal->pSigCfg->resourceActive) ReleaseResource(signal->pSigCfg->resource);
 321:.\source\rte/sc_speed.h **** 
 322:.\source\rte/sc_speed.h ****    //Pointer to the Taskarray, containing the tasks receiving the onUpdate events
 323:.\source\rte/sc_speed.h ****    TaskTypeArray* pTaskArray = signal->pSigCfg->onUpdateTasks;
  68              		.loc 2 323 0
  69 0020 5569     		ldr	r5, [r2, #20]
  70              	.LVL6:
 324:.\source\rte/sc_speed.h **** 
 325:.\source\rte/sc_speed.h ****    if (0 != signal->pSigCfg->evOnUpdate && NULL != pTaskArray){
  71              		.loc 2 325 0
  72 0022 9368     		ldr	r3, [r2, #8]
  73 0024 73B1     		cbz	r3, .L3
  74 0026 3DB9     		cbnz	r5, .L6
  75 0028 0CE0     		b	.L3
  76              	.LVL7:
  77              	.L5:
ARM GAS  C:\Users\zakis\AppData\Local\Temp\cc3mPN01.s 			page 9


  78              	.LBB9:
 326:.\source\rte/sc_speed.h ****       for( taskNum=0 ; taskNum < signal->pSigCfg->onUpdateTaskCount ;taskNum++){
 327:.\source\rte/sc_speed.h **** 		  
 328:.\source\rte/sc_speed.h ****           TaskType task = (*pTaskArray)[taskNum];
 329:.\source\rte/sc_speed.h **** 	      SetEvent( task, signal->pSigCfg->evOnUpdate);
  79              		.loc 2 329 0
  80 002a 9968     		ldr	r1, [r3, #8]
  81 002c 55F82400 		ldr	r0, [r5, r4, lsl #2]
  82 0030 FFF7FEFF 		bl	EE_oo_SetEvent
  83              	.LVL8:
  84              	.LBE9:
 326:.\source\rte/sc_speed.h ****       for( taskNum=0 ; taskNum < signal->pSigCfg->onUpdateTaskCount ;taskNum++){
  85              		.loc 2 326 0
  86 0034 0134     		adds	r4, r4, #1
  87              	.LVL9:
  88 0036 00E0     		b	.L4
  89              	.LVL10:
  90              	.L6:
 325:.\source\rte/sc_speed.h ****       for( taskNum=0 ; taskNum < signal->pSigCfg->onUpdateTaskCount ;taskNum++){
  91              		.loc 2 325 0
  92 0038 0024     		movs	r4, #0
  93              	.LVL11:
  94              	.L4:
 326:.\source\rte/sc_speed.h ****       for( taskNum=0 ; taskNum < signal->pSigCfg->onUpdateTaskCount ;taskNum++){
  95              		.loc 2 326 0
  96 003a 064B     		ldr	r3, .L8+4
  97 003c 9B68     		ldr	r3, [r3, #8]
  98 003e 1A69     		ldr	r2, [r3, #16]
  99 0040 9442     		cmp	r4, r2
 100 0042 F2D3     		bcc	.L5
 101              	.LVL12:
 102              	.L3:
 103              	.LBE8:
 104              	.LBE7:
  55:source\asw/swc_control.c ****         //RTE_SC_SPEED_set(&SO_SPEED_signal, speed);
  56:source\asw/swc_control.c ****         //UART_Logs_PutChar(SO_SPEED_signal.value.m_speed);
  57:source\asw/swc_control.c ****     }
  58:source\asw/swc_control.c **** 
  59:source\asw/swc_control.c ****     //UART_Logs_PutChar(joystickData.m_joystickValueX);
  60:source\asw/swc_control.c ****     RTE_SC_SPEED_set(&SO_SPEED_signal, speed);
  61:source\asw/swc_control.c ****     UART_Logs_PutChar(SO_SPEED_signal.value.m_speed);
 105              		.loc 1 61 0
 106 0044 034B     		ldr	r3, .L8+4
 107 0046 1878     		ldrb	r0, [r3]	@ zero_extendqisi2
 108 0048 FFF7FEFF 		bl	UART_Logs_PutChar
 109              	.LVL13:
 110 004c 38BD     		pop	{r3, r4, r5, pc}
 111              	.L9:
 112 004e 00BF     		.align	2
 113              	.L8:
 114 0050 00000000 		.word	SO_JOYSTICK_signal
 115 0054 00000000 		.word	SO_SPEED_signal
 116              		.cfi_endproc
 117              	.LFE154:
 118              		.size	CONTROL_calcControl_run, .-CONTROL_calcControl_run
 119              		.text
 120              	.Letext0:
ARM GAS  C:\Users\zakis\AppData\Local\Temp\cc3mPN01.s 			page 10


 121              		.file 3 "c:\\program files (x86)\\cypress\\psoc creator\\4.4\\psoc creator\\import\\gnu\\arm\\5.4.
 122              		.file 4 "c:\\program files (x86)\\cypress\\psoc creator\\4.4\\psoc creator\\import\\gnu\\arm\\5.4.
 123              		.file 5 "c:\\program files (x86)\\cypress\\psoc creator\\4.4\\psoc creator\\import\\gnu\\arm\\5.4.
 124              		.file 6 "Generated_Source\\PSoC5/ErikaOS_common_ee_types.inc"
 125              		.file 7 "Generated_Source\\PSoC5/ErikaOS_cortex_mx_ee_cpu.inc"
 126              		.file 8 "Generated_Source\\PSoC5/ErikaOS_ee_oo_common.inc"
 127              		.file 9 ".\\source\\bsw/global.h"
 128              		.file 10 ".\\source\\rte/rte_types.h"
 129              		.file 11 ".\\source\\rte/rte.h"
 130              		.file 12 ".\\source\\rte/sc_joystick_type.h"
 131              		.file 13 ".\\source\\rte/sc_joystick.h"
 132              		.file 14 ".\\source\\rte/sc_speed_type.h"
 133              		.file 15 "Generated_Source\\PSoC5/ErikaOS_ee_oo_intfunc.inc"
 134              		.file 16 "Generated_Source\\PSoC5/ErikaOS_cortex_mx_ee_context.inc"
 135              		.file 17 "Generated_Source\\PSoC5/ErikaOS_common_ee_primitives.inc"
 136              		.file 18 "Generated_Source\\PSoC5/core_cm3.h"
 137              		.file 19 ".\\source\\rte/sp_common.h"
 138              		.file 20 "Generated_Source\\PSoC5/ErikaOS_ee_oo_kernel.inc"
 139              		.file 21 "Generated_Source\\PSoC5/UART_Logs.h"