ARM GAS  C:\Users\zakis\AppData\Local\Temp\cczd70op.s 			page 1


   1              		.syntax unified
   2              		.cpu cortex-m3
   3              		.fpu softvfp
   4              		.eabi_attribute 20, 1
   5              		.eabi_attribute 21, 1
   6              		.eabi_attribute 23, 3
   7              		.eabi_attribute 24, 1
   8              		.eabi_attribute 25, 1
   9              		.eabi_attribute 26, 1
  10              		.eabi_attribute 30, 1
  11              		.eabi_attribute 34, 1
  12              		.eabi_attribute 18, 4
  13              		.thumb
  14              		.syntax unified
  15              		.file	"swc_errorhandler.c"
  16              		.text
  17              	.Ltext0:
  18              		.cfi_sections	.debug_frame
  19              		.section	.text.ERRORHANDLER_errorHandler_run,"ax",%progbits
  20              		.align	2
  21              		.global	ERRORHANDLER_errorHandler_run
  22              		.thumb
  23              		.thumb_func
  24              		.type	ERRORHANDLER_errorHandler_run, %function
  25              	ERRORHANDLER_errorHandler_run:
  26              	.LFB165:
  27              		.file 1 "source\\asw\\swc_errorhandler.c"
   1:source\asw/swc_errorhandler.c **** /*
   2:source\asw/swc_errorhandler.c ****  * Filename: swc_errorhandler.c
   3:source\asw/swc_errorhandler.c ****  *
   4:source\asw/swc_errorhandler.c ****  * Author: Autogenerated by H-DA RTE Generator, (c) Prof. Fromm
   5:source\asw/swc_errorhandler.c ****  *
   6:source\asw/swc_errorhandler.c ****  * description: Software component
   7:source\asw/swc_errorhandler.c ****  * name: swc_errorHandler
   8:source\asw/swc_errorhandler.c ****  * shortname: errorHandler
   9:source\asw/swc_errorhandler.c ****  *
  10:source\asw/swc_errorhandler.c ****  */
  11:source\asw/swc_errorhandler.c **** 
  12:source\asw/swc_errorhandler.c **** #include "project.h"
  13:source\asw/swc_errorhandler.c **** #include "global.h"
  14:source\asw/swc_errorhandler.c **** #include "rte.h"
  15:source\asw/swc_errorhandler.c **** #include "rte_types.h"
  16:source\asw/swc_errorhandler.c **** #include "swc_errorhandler.h"
  17:source\asw/swc_errorhandler.c **** 
  18:source\asw/swc_errorhandler.c **** 
  19:source\asw/swc_errorhandler.c **** 
  20:source\asw/swc_errorhandler.c **** /* USER CODE START SWC_ERRORHANDLER_INCLUDE */
  21:source\asw/swc_errorhandler.c **** 
  22:source\asw/swc_errorhandler.c **** #include "error.h"
  23:source\asw/swc_errorhandler.c **** 
  24:source\asw/swc_errorhandler.c **** /* USER CODE END SWC_ERRORHANDLER_INCLUDE */
  25:source\asw/swc_errorhandler.c **** 
  26:source\asw/swc_errorhandler.c **** 
  27:source\asw/swc_errorhandler.c **** #include "sp_common.h"
  28:source\asw/swc_errorhandler.c **** 
  29:source\asw/swc_errorhandler.c **** /* USER CODE START SWC_ERRORHANDLER_USERDEFINITIONS */
  30:source\asw/swc_errorhandler.c **** 
ARM GAS  C:\Users\zakis\AppData\Local\Temp\cczd70op.s 			page 2


  31:source\asw/swc_errorhandler.c **** /* USER CODE END SWC_ERRORHANDLER_USERDEFINITIONS */
  32:source\asw/swc_errorhandler.c **** 
  33:source\asw/swc_errorhandler.c **** 
  34:source\asw/swc_errorhandler.c **** 
  35:source\asw/swc_errorhandler.c **** /*
  36:source\asw/swc_errorhandler.c ****  * component: swc_errorHandler
  37:source\asw/swc_errorhandler.c ****  * cycletime: 0
  38:source\asw/swc_errorhandler.c ****  * description: Runnable
  39:source\asw/swc_errorhandler.c ****  * events: ev_error
  40:source\asw/swc_errorhandler.c ****  * name: ERRORHANDLER_errorHandler_run
  41:source\asw/swc_errorhandler.c ****  * shortname: errorHandler
  42:source\asw/swc_errorhandler.c ****  * signalIN: 
  43:source\asw/swc_errorhandler.c ****  * signalOUT: 
  44:source\asw/swc_errorhandler.c ****  * task: tsk_errorHandler
  45:source\asw/swc_errorhandler.c ****  */
  46:source\asw/swc_errorhandler.c **** void ERRORHANDLER_errorHandler_run(RTE_event ev){
  28              		.loc 1 46 0
  29              		.cfi_startproc
  30              		@ args = 0, pretend = 0, frame = 24
  31              		@ frame_needed = 0, uses_anonymous_args = 0
  32              	.LVL0:
  33 0000 30B5     		push	{r4, r5, lr}
  34              		.cfi_def_cfa_offset 12
  35              		.cfi_offset 4, -12
  36              		.cfi_offset 5, -8
  37              		.cfi_offset 14, -4
  38 0002 87B0     		sub	sp, sp, #28
  39              		.cfi_def_cfa_offset 40
  47:source\asw/swc_errorhandler.c **** 	
  48:source\asw/swc_errorhandler.c **** 	/* USER CODE START ERRORHANDLER_errorHandler_run */
  49:source\asw/swc_errorhandler.c ****     
  50:source\asw/swc_errorhandler.c ****     
  51:source\asw/swc_errorhandler.c ****     ERROR_disableRunnable(ERROR_LOGGING);
  40              		.loc 1 51 0
  41 0004 0420     		movs	r0, #4
  42              	.LVL1:
  43 0006 FFF7FEFF 		bl	ERROR_disableRunnable
  44              	.LVL2:
  52:source\asw/swc_errorhandler.c ****     SC_LOGGING_data_t log = SC_LOGGING_INIT_DATA;
  53:source\asw/swc_errorhandler.c ****     
  54:source\asw/swc_errorhandler.c ****     log.loggingDisabled = 1;
  45              		.loc 1 54 0
  46 000a 0123     		movs	r3, #1
  47 000c 8DF81430 		strb	r3, [sp, #20]
  55:source\asw/swc_errorhandler.c ****     log.m_loggingEntity = "";
  48              		.loc 1 55 0
  49 0010 1F4B     		ldr	r3, .L10
  50 0012 0393     		str	r3, [sp, #12]
  56:source\asw/swc_errorhandler.c ****     log.loggingValue = "";
  51              		.loc 1 56 0
  52 0014 0493     		str	r3, [sp, #16]
  53              	.LVL3:
  54 0016 06AA     		add	r2, sp, #24
  55 0018 12E90700 		ldmdb	r2, {r0, r1, r2}
  56 001c 8DE80700 		stmia	sp, {r0, r1, r2}
  57              	.LVL4:
  58              	.LBB7:
ARM GAS  C:\Users\zakis\AppData\Local\Temp\cczd70op.s 			page 3


  59              	.LBB8:
  60              		.file 2 ".\\source\\rte/sc_logging.h"
   1:.\source\rte/sc_logging.h **** 
   2:.\source\rte/sc_logging.h **** 
   3:.\source\rte/sc_logging.h **** /**
   4:.\source\rte/sc_logging.h ****  *  file    SC_LOGGING_signal.h
   5:.\source\rte/sc_logging.h ****  *
   6:.\source\rte/sc_logging.h ****  *  brief   signal base class for signal sc_logging
   7:.\source\rte/sc_logging.h ****  *
   8:.\source\rte/sc_logging.h ****  *  author  Autogenerated, Peter Fromm       <peter.fromm@h-da.de>
   9:.\source\rte/sc_logging.h ****  *
  10:.\source\rte/sc_logging.h ****  * description: signal for HMI devices
  11:.\source\rte/sc_logging.h ****  * name: sc_logging
  12:.\source\rte/sc_logging.h ****  * shortname: logging
  13:.\source\rte/sc_logging.h ****  *
  14:.\source\rte/sc_logging.h ****  */
  15:.\source\rte/sc_logging.h **** 
  16:.\source\rte/sc_logging.h **** 
  17:.\source\rte/sc_logging.h **** 
  18:.\source\rte/sc_logging.h **** #ifndef SC_LOGGING_SIGNAL_H_INCLUDED
  19:.\source\rte/sc_logging.h **** #define SC_LOGGING_SIGNAL_H_INCLUDED
  20:.\source\rte/sc_logging.h **** 
  21:.\source\rte/sc_logging.h **** /*================================================[ public includes  ]=============================
  22:.\source\rte/sc_logging.h **** #include "global.h"
  23:.\source\rte/sc_logging.h **** #include "project.h"
  24:.\source\rte/sc_logging.h **** #include "rte.h"
  25:.\source\rte/sc_logging.h **** #include "rte_types.h"
  26:.\source\rte/sc_logging.h **** 
  27:.\source\rte/sc_logging.h **** #include "sc_logging_type.h"
  28:.\source\rte/sc_logging.h **** 
  29:.\source\rte/sc_logging.h **** 
  30:.\source\rte/sc_logging.h **** /**************************************************************************************************
  31:.\source\rte/sc_logging.h **** /* The driver API block																						*/
  32:.\source\rte/sc_logging.h **** /**************************************************************************************************
  33:.\source\rte/sc_logging.h ****                                                                                                    
  34:.\source\rte/sc_logging.h **** /**
  35:.\source\rte/sc_logging.h ****  *  Definition of function types for driver interfaces.
  36:.\source\rte/sc_logging.h ****  *  I-Port
  37:.\source\rte/sc_logging.h ****  */
  38:.\source\rte/sc_logging.h **** typedef RC_t (*SC_LOGGING_driverIn_t)(SC_LOGGING_data_t * const);
  39:.\source\rte/sc_logging.h **** 
  40:.\source\rte/sc_logging.h **** /**
  41:.\source\rte/sc_logging.h ****  *  Definition of function types for driver interfaces.
  42:.\source\rte/sc_logging.h ****  *  O-Port
  43:.\source\rte/sc_logging.h ****  */
  44:.\source\rte/sc_logging.h **** typedef RC_t (*SC_LOGGING_driverOut_t)( const SC_LOGGING_data_t * const);
  45:.\source\rte/sc_logging.h **** 
  46:.\source\rte/sc_logging.h **** 
  47:.\source\rte/sc_logging.h **** /**************************************************************************************************
  48:.\source\rte/sc_logging.h **** /* The signal configuration API block																				*/
  49:.\source\rte/sc_logging.h **** /**************************************************************************************************
  50:.\source\rte/sc_logging.h **** 
  51:.\source\rte/sc_logging.h **** /**
  52:.\source\rte/sc_logging.h ****  * Instances of the struct SC_LOGGING_cfg_t represent the signal object configuration.
  53:.\source\rte/sc_logging.h ****  */
  54:.\source\rte/sc_logging.h **** struct SC_LOGGING_cfg_s
  55:.\source\rte/sc_logging.h **** {
ARM GAS  C:\Users\zakis\AppData\Local\Temp\cczd70op.s 			page 4


  56:.\source\rte/sc_logging.h ****     /**
  57:.\source\rte/sc_logging.h ****      * Function pointer to the input driver
  58:.\source\rte/sc_logging.h ****      */
  59:.\source\rte/sc_logging.h ****     SC_LOGGING_driverIn_t const inDriver;
  60:.\source\rte/sc_logging.h **** 
  61:.\source\rte/sc_logging.h ****     /**
  62:.\source\rte/sc_logging.h ****      * Function pointer to the output driver table
  63:.\source\rte/sc_logging.h ****      */
  64:.\source\rte/sc_logging.h ****    SC_LOGGING_driverOut_t const outDriver;
  65:.\source\rte/sc_logging.h ****    
  66:.\source\rte/sc_logging.h ****     /**
  67:.\source\rte/sc_logging.h ****      * Event onUpdate
  68:.\source\rte/sc_logging.h ****      */
  69:.\source\rte/sc_logging.h ****     EventMaskType const evOnUpdate;
  70:.\source\rte/sc_logging.h ****     
  71:.\source\rte/sc_logging.h ****     
  72:.\source\rte/sc_logging.h ****     /**
  73:.\source\rte/sc_logging.h ****      * Event onError
  74:.\source\rte/sc_logging.h ****      */
  75:.\source\rte/sc_logging.h ****     EventMaskType const evOnError;
  76:.\source\rte/sc_logging.h ****     
  77:.\source\rte/sc_logging.h ****     /**
  78:.\source\rte/sc_logging.h ****      * Task Count onUpdate
  79:.\source\rte/sc_logging.h ****      */
  80:.\source\rte/sc_logging.h ****     size_t const onUpdateTaskCount;
  81:.\source\rte/sc_logging.h **** 
  82:.\source\rte/sc_logging.h ****     /**
  83:.\source\rte/sc_logging.h ****      * Task List onUpdate
  84:.\source\rte/sc_logging.h ****      */
  85:.\source\rte/sc_logging.h ****     TaskTypeArray* const onUpdateTasks;
  86:.\source\rte/sc_logging.h ****     
  87:.\source\rte/sc_logging.h ****     /**
  88:.\source\rte/sc_logging.h ****      * Task Count onError
  89:.\source\rte/sc_logging.h ****      */
  90:.\source\rte/sc_logging.h ****     size_t const onErrorTaskCount;
  91:.\source\rte/sc_logging.h **** 
  92:.\source\rte/sc_logging.h ****     /**
  93:.\source\rte/sc_logging.h ****      * Task List onError
  94:.\source\rte/sc_logging.h ****      */
  95:.\source\rte/sc_logging.h ****     TaskTypeArray* const onErrorTasks;
  96:.\source\rte/sc_logging.h **** 	
  97:.\source\rte/sc_logging.h **** 	
  98:.\source\rte/sc_logging.h **** 	/**
  99:.\source\rte/sc_logging.h **** 	 * Ressourse is active? We need an additional boolean as a ressource value 0 is valid.
 100:.\source\rte/sc_logging.h **** 	 */
 101:.\source\rte/sc_logging.h **** 	 boolean_t const resourceActive;
 102:.\source\rte/sc_logging.h **** 	 
 103:.\source\rte/sc_logging.h **** 	/**
 104:.\source\rte/sc_logging.h **** 	 * Ressourse 
 105:.\source\rte/sc_logging.h **** 	 */
 106:.\source\rte/sc_logging.h **** 	 ResourceType const resource;
 107:.\source\rte/sc_logging.h **** 
 108:.\source\rte/sc_logging.h **** };                                                                                                 
 109:.\source\rte/sc_logging.h **** typedef const struct SC_LOGGING_cfg_s SC_LOGGING_cfg_t;
 110:.\source\rte/sc_logging.h ****                               
 111:.\source\rte/sc_logging.h **** /**************************************************************************************************
 112:.\source\rte/sc_logging.h **** /* The data interface block																							*/
ARM GAS  C:\Users\zakis\AppData\Local\Temp\cczd70op.s 			page 5


 113:.\source\rte/sc_logging.h **** /**************************************************************************************************
 114:.\source\rte/sc_logging.h **** 
 115:.\source\rte/sc_logging.h ****                                                                                                    
 116:.\source\rte/sc_logging.h **** 							  
 117:.\source\rte/sc_logging.h **** /**
 118:.\source\rte/sc_logging.h ****  * Instances of the struct SC_LOGGING_t represent the signal objects.
 119:.\source\rte/sc_logging.h ****  * A signal object contains the current application value 'value' as well as relevant meta data.
 120:.\source\rte/sc_logging.h ****  */
 121:.\source\rte/sc_logging.h **** struct SC_LOGGING_s
 122:.\source\rte/sc_logging.h **** {                                                                                                  
 123:.\source\rte/sc_logging.h **** 
 124:.\source\rte/sc_logging.h **** 	/**
 125:.\source\rte/sc_logging.h **** 	 * Data buffer for the application value
 126:.\source\rte/sc_logging.h **** 	 */
 127:.\source\rte/sc_logging.h ****     SC_LOGGING_data_t value;
 128:.\source\rte/sc_logging.h **** 
 129:.\source\rte/sc_logging.h ****     /**
 130:.\source\rte/sc_logging.h ****      * Current signal status
 131:.\source\rte/sc_logging.h ****      */
 132:.\source\rte/sc_logging.h ****     RTE_signalStatus_t status;
 133:.\source\rte/sc_logging.h **** 
 134:.\source\rte/sc_logging.h ****     /**
 135:.\source\rte/sc_logging.h ****      * Current age of the signal (in calling cycles)
 136:.\source\rte/sc_logging.h ****      */
 137:.\source\rte/sc_logging.h ****     uint32_t age;
 138:.\source\rte/sc_logging.h **** 
 139:.\source\rte/sc_logging.h ****     /**
 140:.\source\rte/sc_logging.h ****      * Pointer to the signal configuration
 141:.\source\rte/sc_logging.h ****      */
 142:.\source\rte/sc_logging.h **** 	const SC_LOGGING_cfg_t * const    pSigCfg;
 143:.\source\rte/sc_logging.h **** 
 144:.\source\rte/sc_logging.h **** };                                                                                                 
 145:.\source\rte/sc_logging.h **** typedef struct SC_LOGGING_s SC_LOGGING_t;
 146:.\source\rte/sc_logging.h **** 
 147:.\source\rte/sc_logging.h **** /**************************************************************************************************
 148:.\source\rte/sc_logging.h **** /* Signal initialisation   																							*/
 149:.\source\rte/sc_logging.h **** /**************************************************************************************************
 150:.\source\rte/sc_logging.h **** 
 151:.\source\rte/sc_logging.h **** /**
 152:.\source\rte/sc_logging.h ****  * Initializes a signal instance with a passed init value.
 153:.\source\rte/sc_logging.h ****  * Depending on the configured conversion or scaling function the raw_value will be calculated.
 154:.\source\rte/sc_logging.h ****  * Signal status will change from RTE_SIGNALSTATUS_STARTUP to RTE_SIGNALSTATUS_INITIALIZED.
 155:.\source\rte/sc_logging.h ****  *
 156:.\source\rte/sc_logging.h ****  * @param  SC_LOGGING_t * const signal: Pointer to the signal object which will be initialised
 157:.\source\rte/sc_logging.h ****  * @return RC_t: standard return code, currently only RC_SUCCESS
 158:.\source\rte/sc_logging.h ****  *
 159:.\source\rte/sc_logging.h ****  **/
 160:.\source\rte/sc_logging.h **** inline RC_t RTE_SC_LOGGING_init( SC_LOGGING_t * const signal )
 161:.\source\rte/sc_logging.h **** {                                                                                                  
 162:.\source\rte/sc_logging.h **** 
 163:.\source\rte/sc_logging.h ****    RC_t ret = RC_SUCCESS;
 164:.\source\rte/sc_logging.h **** 
 165:.\source\rte/sc_logging.h ****    //Set value and raw value
 166:.\source\rte/sc_logging.h ****    signal->value  = SC_LOGGING_INIT_DATA;
 167:.\source\rte/sc_logging.h ****    signal->age    = 0;
 168:.\source\rte/sc_logging.h ****    signal->status = RTE_SIGNALSTATUS_INITIALIZED;
 169:.\source\rte/sc_logging.h **** 
ARM GAS  C:\Users\zakis\AppData\Local\Temp\cczd70op.s 			page 6


 170:.\source\rte/sc_logging.h ****    return ret;
 171:.\source\rte/sc_logging.h **** }
 172:.\source\rte/sc_logging.h **** 
 173:.\source\rte/sc_logging.h **** /**************************************************************************************************
 174:.\source\rte/sc_logging.h **** /* Status and timeout control																						*/
 175:.\source\rte/sc_logging.h **** /**************************************************************************************************
 176:.\source\rte/sc_logging.h **** 
 177:.\source\rte/sc_logging.h **** /**
 178:.\source\rte/sc_logging.h ****  *  Returns the current signal status of the passed signal instance.
 179:.\source\rte/sc_logging.h ****  *
 180:.\source\rte/sc_logging.h ****  * @param  SC_LOGGING_t * const signal: Pointer to the signal object
 181:.\source\rte/sc_logging.h ****  * @return  sig_status_t: The current signal status
 182:.\source\rte/sc_logging.h ****  *
 183:.\source\rte/sc_logging.h ****  **/
 184:.\source\rte/sc_logging.h **** inline RTE_signalStatus_t RTE_SC_LOGGING_getStatus( const SC_LOGGING_t * const signal )
 185:.\source\rte/sc_logging.h **** {
 186:.\source\rte/sc_logging.h ****    return signal->status;
 187:.\source\rte/sc_logging.h **** }
 188:.\source\rte/sc_logging.h **** 
 189:.\source\rte/sc_logging.h **** 
 190:.\source\rte/sc_logging.h **** /**
 191:.\source\rte/sc_logging.h ****  *  Sets a new signal status of the passed signal instance by passing the new status.
 192:.\source\rte/sc_logging.h ****  *
 193:.\source\rte/sc_logging.h ****  * @param  SC_LOGGING_t * const signal: Pointer to the signal object
 194:.\source\rte/sc_logging.h ****  * @param  const sig_status_t status: New signal status
 195:.\source\rte/sc_logging.h ****  * @return RC_t: standard return code, currently only RC_SUCCESS
 196:.\source\rte/sc_logging.h ****  *
 197:.\source\rte/sc_logging.h ****  */
 198:.\source\rte/sc_logging.h **** inline RC_t RTE_SC_LOGGING_setStatus( SC_LOGGING_t * const signal, const RTE_signalStatus_t status 
 199:.\source\rte/sc_logging.h **** {
 200:.\source\rte/sc_logging.h ****    signal->status = status;
 201:.\source\rte/sc_logging.h ****    size_t taskNum=0;
 202:.\source\rte/sc_logging.h ****    
 203:.\source\rte/sc_logging.h ****    //Fire error events in case of invalid state
 204:.\source\rte/sc_logging.h ****    if (signal->status == RTE_SIGNALSTATUS_INVALID)
 205:.\source\rte/sc_logging.h ****    {
 206:.\source\rte/sc_logging.h **** 	    //Pointer to the Taskarray, containing the tasks receiving the onUpdate events
 207:.\source\rte/sc_logging.h **** 		TaskTypeArray* pTaskArray = signal->pSigCfg->onErrorTasks;
 208:.\source\rte/sc_logging.h **** 
 209:.\source\rte/sc_logging.h **** 		if (0 != signal->pSigCfg->evOnError && NULL != pTaskArray){
 210:.\source\rte/sc_logging.h **** 			for( taskNum=0 ; taskNum < signal->pSigCfg->onErrorTaskCount ;taskNum++){
 211:.\source\rte/sc_logging.h **** 				TaskType task = (*pTaskArray)[taskNum];
 212:.\source\rte/sc_logging.h **** 				SetEvent( task, signal->pSigCfg->evOnError);
 213:.\source\rte/sc_logging.h **** 			}
 214:.\source\rte/sc_logging.h **** 		}
 215:.\source\rte/sc_logging.h ****    }
 216:.\source\rte/sc_logging.h ****    
 217:.\source\rte/sc_logging.h ****    return RC_SUCCESS;
 218:.\source\rte/sc_logging.h **** }
 219:.\source\rte/sc_logging.h **** 
 220:.\source\rte/sc_logging.h **** 
 221:.\source\rte/sc_logging.h **** /**
 222:.\source\rte/sc_logging.h ****  * Returns the count of refreshing trials (refresh, set or set_raw) that failed.
 223:.\source\rte/sc_logging.h ****  * Prerquisite: The signal is refreshed cyclically
 224:.\source\rte/sc_logging.h ****  *
 225:.\source\rte/sc_logging.h ****  * @param  SC_LOGGING_t * const signal: Pointer to the signal object
 226:.\source\rte/sc_logging.h ****  * @return uint32_t: Number of cycles since the signal has been updated for the last time
ARM GAS  C:\Users\zakis\AppData\Local\Temp\cczd70op.s 			page 7


 227:.\source\rte/sc_logging.h ****  */
 228:.\source\rte/sc_logging.h **** inline uint32_t RTE_SC_LOGGING_getAge( const SC_LOGGING_t * const signal )
 229:.\source\rte/sc_logging.h **** {
 230:.\source\rte/sc_logging.h ****    return signal->age;
 231:.\source\rte/sc_logging.h **** }
 232:.\source\rte/sc_logging.h **** 
 233:.\source\rte/sc_logging.h **** /**
 234:.\source\rte/sc_logging.h ****  * Should be called by application or driver if no new value can be provided.
 235:.\source\rte/sc_logging.h ****  * @param  SC_LOGGING_t * const signal: Pointer to the signal object
 236:.\source\rte/sc_logging.h ****  * @param uint32_t increment: incrementvalue, typically in [ms]
 237:.\source\rte/sc_logging.h ****  * @return void
 238:.\source\rte/sc_logging.h ****  */
 239:.\source\rte/sc_logging.h **** inline void RTE_SC_LOGGING_incAge(  SC_LOGGING_t * const signal , uint32_t increment)
 240:.\source\rte/sc_logging.h **** {
 241:.\source\rte/sc_logging.h **** 	   //Hack....
 242:.\source\rte/sc_logging.h **** 	   if ( 0xFFFF0000 > (signal->age + increment) )
 243:.\source\rte/sc_logging.h **** 	   {
 244:.\source\rte/sc_logging.h **** 	      signal->age += increment;
 245:.\source\rte/sc_logging.h **** 	   }
 246:.\source\rte/sc_logging.h **** }
 247:.\source\rte/sc_logging.h **** 
 248:.\source\rte/sc_logging.h **** 
 249:.\source\rte/sc_logging.h **** /**************************************************************************************************
 250:.\source\rte/sc_logging.h **** /* Application Data read/write Interface																			*/
 251:.\source\rte/sc_logging.h **** /**************************************************************************************************
 252:.\source\rte/sc_logging.h **** 
 253:.\source\rte/sc_logging.h **** /**
 254:.\source\rte/sc_logging.h ****  * Returns the current application value as pointer to the signal payload.
 255:.\source\rte/sc_logging.h ****  * Careful: This is not threadsafe!!!
 256:.\source\rte/sc_logging.h ****  *
 257:.\source\rte/sc_logging.h ****  * @param  SC_LOGGING_t * const signal: Pointer to the signal object
 258:.\source\rte/sc_logging.h ****  * @return sc_logging_data_t*: pointer to the current value of the application data buffer
 259:.\source\rte/sc_logging.h ****  *
 260:.\source\rte/sc_logging.h ****  **/
 261:.\source\rte/sc_logging.h **** inline SC_LOGGING_data_t* RTE_SC_LOGGING_getPtr( SC_LOGGING_t * const signal )
 262:.\source\rte/sc_logging.h **** {               
 263:.\source\rte/sc_logging.h ****    //Todo: Critical region cannot be protected using return values																						
 264:.\source\rte/sc_logging.h ****    return &(signal->value);                                                                        
 265:.\source\rte/sc_logging.h **** }
 266:.\source\rte/sc_logging.h **** 
 267:.\source\rte/sc_logging.h **** /**
 268:.\source\rte/sc_logging.h ****  * Returns the current application value of the passed signal instance.
 269:.\source\rte/sc_logging.h ****  *
 270:.\source\rte/sc_logging.h ****  * @param  SC_LOGGING_t * const signal: Pointer to the signal object
 271:.\source\rte/sc_logging.h ****  * @return sc_logging_data_t: current value of the application data buffer
 272:.\source\rte/sc_logging.h ****  *
 273:.\source\rte/sc_logging.h ****  **/
 274:.\source\rte/sc_logging.h **** inline SC_LOGGING_data_t RTE_SC_LOGGING_get( const SC_LOGGING_t * const signal )
 275:.\source\rte/sc_logging.h **** {               
 276:.\source\rte/sc_logging.h ****    //Todo: Critical region cannot be protected using return values																						
 277:.\source\rte/sc_logging.h ****    return signal->value;                                                                           
 278:.\source\rte/sc_logging.h **** }                                                                                                  
 279:.\source\rte/sc_logging.h ****                                                                                                    
 280:.\source\rte/sc_logging.h **** /**
 281:.\source\rte/sc_logging.h ****  * Returns the current application value of the passed signal instance threadsafe.
 282:.\source\rte/sc_logging.h ****  *
 283:.\source\rte/sc_logging.h ****  * @param  SC_LOGGING_t * const signal: Pointer to the signal object
ARM GAS  C:\Users\zakis\AppData\Local\Temp\cczd70op.s 			page 8


 284:.\source\rte/sc_logging.h ****  * @param  SC_LOGGING_data_t* data: Pointer to the return data Pointer to the signal object
 285:.\source\rte/sc_logging.h ****  * @return RC_SUCCESS
 286:.\source\rte/sc_logging.h ****  *
 287:.\source\rte/sc_logging.h ****  **/
 288:.\source\rte/sc_logging.h **** inline RC_t RTE_SC_LOGGING_getThreadSafe( const SC_LOGGING_t * const signal, SC_LOGGING_data_t * co
 289:.\source\rte/sc_logging.h **** {    
 290:.\source\rte/sc_logging.h ****    if (TRUE == signal->pSigCfg->resourceActive) GetResource(signal->pSigCfg->resource);
 291:.\source\rte/sc_logging.h ****    *data = signal->value;
 292:.\source\rte/sc_logging.h ****    if (TRUE == signal->pSigCfg->resourceActive) ReleaseResource(signal->pSigCfg->resource);        
 293:.\source\rte/sc_logging.h **** 
 294:.\source\rte/sc_logging.h ****    return RC_SUCCESS;                                                                   
 295:.\source\rte/sc_logging.h ****    
 296:.\source\rte/sc_logging.h **** }                                                                                                  
 297:.\source\rte/sc_logging.h ****                                                                                                    
 298:.\source\rte/sc_logging.h **** /**
 299:.\source\rte/sc_logging.h ****  * Sets a new application value to the passed signal instance by passing the new value.
 300:.\source\rte/sc_logging.h ****  * The corresponding driver raw value will be calculated immediately by using the default conversio
 301:.\source\rte/sc_logging.h ****  * signal specific scaling function.
 302:.\source\rte/sc_logging.h ****  * The signal age will be set to 0 and the new status will be 'RTE_SIGNALSTATUS_VALID'.
 303:.\source\rte/sc_logging.h ****  *
 304:.\source\rte/sc_logging.h ****  * @param  SC_LOGGING_t * const signal: Pointer to the signal object
 305:.\source\rte/sc_logging.h ****  * @param  sc_logging_data_t const value: value for the application data buffer
 306:.\source\rte/sc_logging.h ****  * @return RC_t: standard return code, currently only RC_SUCCESS
 307:.\source\rte/sc_logging.h ****  *
 308:.\source\rte/sc_logging.h ****  **/
 309:.\source\rte/sc_logging.h **** inline RC_t RTE_SC_LOGGING_set(SC_LOGGING_t * const signal, const SC_LOGGING_data_t value  )
 310:.\source\rte/sc_logging.h **** {
 311:.\source\rte/sc_logging.h **** 
 312:.\source\rte/sc_logging.h ****    RC_t ret = RC_SUCCESS;
 313:.\source\rte/sc_logging.h ****    size_t taskNum=0;
 314:.\source\rte/sc_logging.h **** 
 315:.\source\rte/sc_logging.h **** 
 316:.\source\rte/sc_logging.h ****    if (TRUE == signal->pSigCfg->resourceActive) GetResource(signal->pSigCfg->resource);
  61              		.loc 2 316 0
  62 0020 1C4B     		ldr	r3, .L10+4
  63 0022 5B69     		ldr	r3, [r3, #20]
  64 0024 93F82020 		ldrb	r2, [r3, #32]	@ zero_extendqisi2
  65 0028 012A     		cmp	r2, #1
  66 002a 02D1     		bne	.L2
  67 002c 586A     		ldr	r0, [r3, #36]
  68 002e FFF7FEFF 		bl	EE_oo_GetResource
  69              	.LVL5:
  70              	.L2:
 317:.\source\rte/sc_logging.h ****    signal->value  = value;
  71              		.loc 2 317 0
  72 0032 184B     		ldr	r3, .L10+4
  73 0034 9DE80700 		ldmia	sp, {r0, r1, r2}
  74 0038 83E80700 		stmia	r3, {r0, r1, r2}
 318:.\source\rte/sc_logging.h ****    signal->age    = 0;
  75              		.loc 2 318 0
  76 003c 0022     		movs	r2, #0
  77 003e 1A61     		str	r2, [r3, #16]
 319:.\source\rte/sc_logging.h ****    signal->status = RTE_SIGNALSTATUS_VALID;
  78              		.loc 2 319 0
  79 0040 0222     		movs	r2, #2
  80 0042 1A73     		strb	r2, [r3, #12]
 320:.\source\rte/sc_logging.h ****    if (TRUE == signal->pSigCfg->resourceActive) ReleaseResource(signal->pSigCfg->resource);
ARM GAS  C:\Users\zakis\AppData\Local\Temp\cczd70op.s 			page 9


  81              		.loc 2 320 0
  82 0044 5B69     		ldr	r3, [r3, #20]
  83 0046 93F82020 		ldrb	r2, [r3, #32]	@ zero_extendqisi2
  84 004a 012A     		cmp	r2, #1
  85 004c 02D1     		bne	.L3
  86 004e 586A     		ldr	r0, [r3, #36]
  87 0050 FFF7FEFF 		bl	EE_oo_ReleaseResource
  88              	.LVL6:
  89              	.L3:
 321:.\source\rte/sc_logging.h **** 
 322:.\source\rte/sc_logging.h ****    //Pointer to the Taskarray, containing the tasks receiving the onUpdate events
 323:.\source\rte/sc_logging.h ****    TaskTypeArray* pTaskArray = signal->pSigCfg->onUpdateTasks;
  90              		.loc 2 323 0
  91 0054 0F4B     		ldr	r3, .L10+4
  92 0056 5B69     		ldr	r3, [r3, #20]
  93 0058 5D69     		ldr	r5, [r3, #20]
  94              	.LVL7:
 324:.\source\rte/sc_logging.h **** 
 325:.\source\rte/sc_logging.h ****    if (0 != signal->pSigCfg->evOnUpdate && NULL != pTaskArray){
  95              		.loc 2 325 0
  96 005a 9B68     		ldr	r3, [r3, #8]
  97 005c 73B1     		cbz	r3, .L4
  98 005e 3DB9     		cbnz	r5, .L8
  99 0060 0CE0     		b	.L4
 100              	.LVL8:
 101              	.L6:
 102              	.LBB9:
 326:.\source\rte/sc_logging.h ****       for( taskNum=0 ; taskNum < signal->pSigCfg->onUpdateTaskCount ;taskNum++){
 327:.\source\rte/sc_logging.h **** 		  
 328:.\source\rte/sc_logging.h ****           TaskType task = (*pTaskArray)[taskNum];
 329:.\source\rte/sc_logging.h **** 	      SetEvent( task, signal->pSigCfg->evOnUpdate);
 103              		.loc 2 329 0
 104 0062 9968     		ldr	r1, [r3, #8]
 105 0064 55F82400 		ldr	r0, [r5, r4, lsl #2]
 106 0068 FFF7FEFF 		bl	EE_oo_SetEvent
 107              	.LVL9:
 108              	.LBE9:
 326:.\source\rte/sc_logging.h ****       for( taskNum=0 ; taskNum < signal->pSigCfg->onUpdateTaskCount ;taskNum++){
 109              		.loc 2 326 0
 110 006c 0134     		adds	r4, r4, #1
 111              	.LVL10:
 112 006e 00E0     		b	.L5
 113              	.LVL11:
 114              	.L8:
 325:.\source\rte/sc_logging.h ****       for( taskNum=0 ; taskNum < signal->pSigCfg->onUpdateTaskCount ;taskNum++){
 115              		.loc 2 325 0
 116 0070 0024     		movs	r4, #0
 117              	.LVL12:
 118              	.L5:
 326:.\source\rte/sc_logging.h ****       for( taskNum=0 ; taskNum < signal->pSigCfg->onUpdateTaskCount ;taskNum++){
 119              		.loc 2 326 0
 120 0072 084B     		ldr	r3, .L10+4
 121 0074 5B69     		ldr	r3, [r3, #20]
 122 0076 1A69     		ldr	r2, [r3, #16]
 123 0078 9442     		cmp	r4, r2
 124 007a F2D3     		bcc	.L6
 125              	.LVL13:
ARM GAS  C:\Users\zakis\AppData\Local\Temp\cczd70op.s 			page 10


 126              	.L4:
 127              	.LBE8:
 128              	.LBE7:
 129              	.LBB10:
 130              	.LBB11:
 330:.\source\rte/sc_logging.h ****       }
 331:.\source\rte/sc_logging.h ****    }
 332:.\source\rte/sc_logging.h **** 
 333:.\source\rte/sc_logging.h ****    return ret;
 334:.\source\rte/sc_logging.h **** }                                                                                                  
 335:.\source\rte/sc_logging.h ****                                                                                                    
 336:.\source\rte/sc_logging.h ****                                                                                                    
 337:.\source\rte/sc_logging.h **** /**************************************************************************************************
 338:.\source\rte/sc_logging.h **** /* Call functions to the connected drivers																			*/
 339:.\source\rte/sc_logging.h **** /**************************************************************************************************
 340:.\source\rte/sc_logging.h **** 
 341:.\source\rte/sc_logging.h ****                                                                                                    
 342:.\source\rte/sc_logging.h **** /**
 343:.\source\rte/sc_logging.h ****  *  Calls the connected driver interface to get a new value.
 344:.\source\rte/sc_logging.h ****  *
 345:.\source\rte/sc_logging.h ****  * @param SC_LOGGING_t * const signal: Pointer to the signal object
 346:.\source\rte/sc_logging.h ****  * @return  RC_t: Return value of the driver call
 347:.\source\rte/sc_logging.h ****  *
 348:.\source\rte/sc_logging.h ****  */
 349:.\source\rte/sc_logging.h **** inline RC_t RTE_SC_LOGGING_pullPort( SC_LOGGING_t * const signal )
 350:.\source\rte/sc_logging.h **** {                                                                                                  
 351:.\source\rte/sc_logging.h ****    RC_t ret = RC_SUCCESS;
 352:.\source\rte/sc_logging.h **** 
 353:.\source\rte/sc_logging.h ****                                                                                                    
 354:.\source\rte/sc_logging.h ****    if ( NULL != signal->pSigCfg->inDriver )
 355:.\source\rte/sc_logging.h ****    {
 356:.\source\rte/sc_logging.h **** 	  SC_LOGGING_data_t value = signal->value;
 357:.\source\rte/sc_logging.h ****       ret = signal->pSigCfg->inDriver(&value);
 358:.\source\rte/sc_logging.h ****                                                                                                    
 359:.\source\rte/sc_logging.h ****       if ( ret == RC_SUCCESS )                                                                     
 360:.\source\rte/sc_logging.h ****       {
 361:.\source\rte/sc_logging.h ****     	  //Critical Section
 362:.\source\rte/sc_logging.h ****     	  RTE_SC_LOGGING_set(signal, value);
 363:.\source\rte/sc_logging.h ****       }
 364:.\source\rte/sc_logging.h ****       else
 365:.\source\rte/sc_logging.h ****       {
 366:.\source\rte/sc_logging.h **** 		  //Signal is invalid. Error event (if present) will be fired
 367:.\source\rte/sc_logging.h **** 		  RTE_SC_LOGGING_setStatus(signal, RTE_SIGNALSTATUS_INVALID);
 368:.\source\rte/sc_logging.h ****       }
 369:.\source\rte/sc_logging.h **** 
 370:.\source\rte/sc_logging.h ****    }                                                                                               
 371:.\source\rte/sc_logging.h ****                                                                                                    
 372:.\source\rte/sc_logging.h ****    return ret;                                                                                     
 373:.\source\rte/sc_logging.h **** }                                                                                                  
 374:.\source\rte/sc_logging.h ****                                                                                                    
 375:.\source\rte/sc_logging.h **** /**
 376:.\source\rte/sc_logging.h ****  *  Calls the connected driver interfaces to send a value. Value will not be sent if it is INVALID.
 377:.\source\rte/sc_logging.h ****  *
 378:.\source\rte/sc_logging.h ****  * @param SC_LOGGING_t * const signal: Pointer to the signal object
 379:.\source\rte/sc_logging.h ****  * @return  RC_t: Return value of the driver call
 380:.\source\rte/sc_logging.h ****  *
 381:.\source\rte/sc_logging.h ****  **/
ARM GAS  C:\Users\zakis\AppData\Local\Temp\cczd70op.s 			page 11


 382:.\source\rte/sc_logging.h **** inline RC_t RTE_SC_LOGGING_pushPort( const SC_LOGGING_t * const signal )
 383:.\source\rte/sc_logging.h **** {                                                                                                  
 384:.\source\rte/sc_logging.h ****    RC_t ret = RC_ERROR;
 385:.\source\rte/sc_logging.h **** 
 386:.\source\rte/sc_logging.h ****    if (RTE_SIGNALSTATUS_VALID == signal->status)
 131              		.loc 2 386 0
 132 007c 054B     		ldr	r3, .L10+4
 133 007e 1B7B     		ldrb	r3, [r3, #12]	@ zero_extendqisi2
 134 0080 022B     		cmp	r3, #2
 135 0082 03D1     		bne	.L1
 387:.\source\rte/sc_logging.h ****    {
 388:.\source\rte/sc_logging.h **** 	   ret = signal->pSigCfg->outDriver(&(signal->value));
 136              		.loc 2 388 0
 137 0084 0348     		ldr	r0, .L10+4
 138 0086 4369     		ldr	r3, [r0, #20]
 139 0088 5B68     		ldr	r3, [r3, #4]
 140 008a 9847     		blx	r3
 141              	.LVL14:
 142              	.L1:
 143              	.LBE11:
 144              	.LBE10:
  57:source\asw/swc_errorhandler.c ****     RTE_SC_LOGGING_set(&SO_LOGGING_signal, log);
  58:source\asw/swc_errorhandler.c ****     RTE_SC_LOGGING_pushPort(&SO_LOGGING_signal);
  59:source\asw/swc_errorhandler.c **** 
  60:source\asw/swc_errorhandler.c ****     
  61:source\asw/swc_errorhandler.c ****     
  62:source\asw/swc_errorhandler.c **** 
  63:source\asw/swc_errorhandler.c ****     /* USER CODE END ERRORHANDLER_errorHandler_run */
  64:source\asw/swc_errorhandler.c **** }
 145              		.loc 1 64 0
 146 008c 07B0     		add	sp, sp, #28
 147              		.cfi_def_cfa_offset 12
 148              		@ sp needed
 149 008e 30BD     		pop	{r4, r5, pc}
 150              	.L11:
 151              		.align	2
 152              	.L10:
 153 0090 14000000 		.word	.LC1
 154 0094 00000000 		.word	SO_LOGGING_signal
 155              		.cfi_endproc
 156              	.LFE165:
 157              		.size	ERRORHANDLER_errorHandler_run, .-ERRORHANDLER_errorHandler_run
 158              		.section	.rodata.str1.4,"aMS",%progbits,1
 159              		.align	2
 160              	.LC0:
 161 0000 41636365 		.ascii	"Accelerator Value: \000"
 161      6C657261 
 161      746F7220 
 161      56616C75 
 161      653A2000 
 162              	.LC1:
 163 0014 00       		.ascii	"\000"
 164              		.text
 165              	.Letext0:
 166              		.file 3 "c:\\program files (x86)\\cypress\\psoc creator\\4.4\\psoc creator\\import\\gnu\\arm\\5.4.
 167              		.file 4 "c:\\program files (x86)\\cypress\\psoc creator\\4.4\\psoc creator\\import\\gnu\\arm\\5.4.
 168              		.file 5 "c:\\program files (x86)\\cypress\\psoc creator\\4.4\\psoc creator\\import\\gnu\\arm\\5.4.
ARM GAS  C:\Users\zakis\AppData\Local\Temp\cczd70op.s 			page 12


 169              		.file 6 "Generated_Source\\PSoC5/ErikaOS_common_ee_types.inc"
 170              		.file 7 "Generated_Source\\PSoC5/ErikaOS_cortex_mx_ee_cpu.inc"
 171              		.file 8 "Generated_Source\\PSoC5/ErikaOS_ee_oo_common.inc"
 172              		.file 9 ".\\source\\bsw/global.h"
 173              		.file 10 ".\\source\\rte/rte_types.h"
 174              		.file 11 ".\\source\\rte/rte.h"
 175              		.file 12 ".\\source\\bsw/error.h"
 176              		.file 13 ".\\source\\rte/sc_logging_type.h"
 177              		.file 14 "Generated_Source\\PSoC5/ErikaOS_ee_oo_intfunc.inc"
 178              		.file 15 "Generated_Source\\PSoC5/ErikaOS_cortex_mx_ee_context.inc"
 179              		.file 16 "Generated_Source\\PSoC5/ErikaOS_common_ee_primitives.inc"
 180              		.file 17 "Generated_Source\\PSoC5/core_cm3.h"
 181              		.file 18 ".\\source\\rte/sp_common.h"
 182              		.file 19 "Generated_Source\\PSoC5/ErikaOS_ee_oo_kernel.inc"