ARM GAS  C:\Users\zakis\AppData\Local\Temp\cc42xQ8h.s 			page 1


   1              		.syntax unified
   2              		.cpu cortex-m3
   3              		.fpu softvfp
   4              		.eabi_attribute 20, 1
   5              		.eabi_attribute 21, 1
   6              		.eabi_attribute 23, 3
   7              		.eabi_attribute 24, 1
   8              		.eabi_attribute 25, 1
   9              		.eabi_attribute 26, 1
  10              		.eabi_attribute 30, 1
  11              		.eabi_attribute 34, 1
  12              		.eabi_attribute 18, 4
  13              		.thumb
  14              		.syntax unified
  15              		.file	"swc_logging.c"
  16              		.text
  17              	.Ltext0:
  18              		.cfi_sections	.debug_frame
  19              		.section	.text.reverseString,"ax",%progbits
  20              		.align	2
  21              		.global	reverseString
  22              		.thumb
  23              		.thumb_func
  24              		.type	reverseString, %function
  25              	reverseString:
  26              	.LFB167:
  27              		.file 1 "source\\asw\\swc_logging.c"
   1:source\asw/swc_logging.c **** /*
   2:source\asw/swc_logging.c ****  * Filename: swc_logging.c
   3:source\asw/swc_logging.c ****  *
   4:source\asw/swc_logging.c ****  * Author: Autogenerated by H-DA RTE Generator, (c) Prof. Fromm
   5:source\asw/swc_logging.c ****  *
   6:source\asw/swc_logging.c ****  * description: Logging data on UART/TFT
   7:source\asw/swc_logging.c ****  * name: swc_logging
   8:source\asw/swc_logging.c ****  * shortname: logging
   9:source\asw/swc_logging.c ****  *
  10:source\asw/swc_logging.c ****  */
  11:source\asw/swc_logging.c **** 
  12:source\asw/swc_logging.c **** #include "project.h"
  13:source\asw/swc_logging.c **** #include "global.h"
  14:source\asw/swc_logging.c **** #include "rte.h"
  15:source\asw/swc_logging.c **** #include "rte_types.h"
  16:source\asw/swc_logging.c **** #include "swc_logging.h"
  17:source\asw/swc_logging.c **** 
  18:source\asw/swc_logging.c **** 
  19:source\asw/swc_logging.c **** 
  20:source\asw/swc_logging.c **** /* USER CODE START SWC_LOGGING_INCLUDE */
  21:source\asw/swc_logging.c **** 
  22:source\asw/swc_logging.c **** #include "stdio.h"
  23:source\asw/swc_logging.c **** 
  24:source\asw/swc_logging.c **** /* USER CODE END SWC_LOGGING_INCLUDE */
  25:source\asw/swc_logging.c **** 
  26:source\asw/swc_logging.c **** 
  27:source\asw/swc_logging.c **** #include "sp_common.h"
  28:source\asw/swc_logging.c **** 
  29:source\asw/swc_logging.c **** /* USER CODE START SWC_LOGGING_USERDEFINITIONS */
  30:source\asw/swc_logging.c **** 
ARM GAS  C:\Users\zakis\AppData\Local\Temp\cc42xQ8h.s 			page 2


  31:source\asw/swc_logging.c **** RC_t convertToString(sint8_t number, char_t *buffer) {
  32:source\asw/swc_logging.c ****     if (number <= 0){
  33:source\asw/swc_logging.c ****         buffer[0] = '0';
  34:source\asw/swc_logging.c ****         buffer[1] = '\0';
  35:source\asw/swc_logging.c ****         return RC_SUCCESS;
  36:source\asw/swc_logging.c ****     }
  37:source\asw/swc_logging.c ****     
  38:source\asw/swc_logging.c ****     int i = 0;
  39:source\asw/swc_logging.c **** 
  40:source\asw/swc_logging.c ****     /* Convert the number to a string in reverse order. */
  41:source\asw/swc_logging.c ****     while (number != 0) {
  42:source\asw/swc_logging.c ****         int digit = number % 10;
  43:source\asw/swc_logging.c ****         buffer[i++] = digit + '0';
  44:source\asw/swc_logging.c ****         number = number / 10;
  45:source\asw/swc_logging.c ****     }
  46:source\asw/swc_logging.c **** 
  47:source\asw/swc_logging.c ****     /* Add null terminator to the end of the string. */
  48:source\asw/swc_logging.c ****     buffer[i] = '\0';
  49:source\asw/swc_logging.c **** 
  50:source\asw/swc_logging.c ****     /* Reverse the string to get the correct order. */
  51:source\asw/swc_logging.c ****     reverseString(buffer, i);
  52:source\asw/swc_logging.c **** 
  53:source\asw/swc_logging.c ****     return RC_SUCCESS;
  54:source\asw/swc_logging.c **** }
  55:source\asw/swc_logging.c **** 
  56:source\asw/swc_logging.c **** RC_t reverseString(char_t *str, uint8_t length) {
  28              		.loc 1 56 0
  29              		.cfi_startproc
  30              		@ args = 0, pretend = 0, frame = 0
  31              		@ frame_needed = 0, uses_anonymous_args = 0
  32              		@ link register save eliminated.
  33              	.LVL0:
  34 0000 10B4     		push	{r4}
  35              		.cfi_def_cfa_offset 4
  36              		.cfi_offset 4, -4
  37              	.LVL1:
  57:source\asw/swc_logging.c ****     int start = 0;
  58:source\asw/swc_logging.c ****     int end = length - 1;
  38              		.loc 1 58 0
  39 0002 0139     		subs	r1, r1, #1
  40              	.LVL2:
  57:source\asw/swc_logging.c ****     int start = 0;
  41              		.loc 1 57 0
  42 0004 0023     		movs	r3, #0
  59:source\asw/swc_logging.c **** 
  60:source\asw/swc_logging.c ****     /* Swap characters from start to end to reverse the string. */
  61:source\asw/swc_logging.c ****     while (start < end) {
  43              		.loc 1 61 0
  44 0006 05E0     		b	.L2
  45              	.LVL3:
  46              	.L3:
  47              	.LBB9:
  62:source\asw/swc_logging.c ****         char_t temp = str[start];
  48              		.loc 1 62 0
  49 0008 C25C     		ldrb	r2, [r0, r3]	@ zero_extendqisi2
  50              	.LVL4:
  63:source\asw/swc_logging.c ****         str[start] = str[end];
ARM GAS  C:\Users\zakis\AppData\Local\Temp\cc42xQ8h.s 			page 3


  51              		.loc 1 63 0
  52 000a 445C     		ldrb	r4, [r0, r1]	@ zero_extendqisi2
  53 000c C454     		strb	r4, [r0, r3]
  64:source\asw/swc_logging.c ****         str[end] = temp;
  54              		.loc 1 64 0
  55 000e 4254     		strb	r2, [r0, r1]
  65:source\asw/swc_logging.c **** 
  66:source\asw/swc_logging.c ****         start++;
  56              		.loc 1 66 0
  57 0010 0133     		adds	r3, r3, #1
  58              	.LVL5:
  67:source\asw/swc_logging.c ****         end--;
  59              		.loc 1 67 0
  60 0012 0139     		subs	r1, r1, #1
  61              	.LVL6:
  62              	.L2:
  63              	.LBE9:
  61:source\asw/swc_logging.c ****         char_t temp = str[start];
  64              		.loc 1 61 0
  65 0014 8B42     		cmp	r3, r1
  66 0016 F7DB     		blt	.L3
  68:source\asw/swc_logging.c ****     }
  69:source\asw/swc_logging.c **** 
  70:source\asw/swc_logging.c ****     return RC_SUCCESS;
  71:source\asw/swc_logging.c **** }
  67              		.loc 1 71 0
  68 0018 0020     		movs	r0, #0
  69              	.LVL7:
  70 001a 10BC     		pop	{r4}
  71              		.cfi_restore 4
  72              		.cfi_def_cfa_offset 0
  73 001c 7047     		bx	lr
  74              		.cfi_endproc
  75              	.LFE167:
  76              		.size	reverseString, .-reverseString
  77 001e 00BF     		.section	.text.convertToString,"ax",%progbits
  78              		.align	2
  79              		.global	convertToString
  80              		.thumb
  81              		.thumb_func
  82              		.type	convertToString, %function
  83              	convertToString:
  84              	.LFB166:
  31:source\asw/swc_logging.c ****     if (number <= 0){
  85              		.loc 1 31 0
  86              		.cfi_startproc
  87              		@ args = 0, pretend = 0, frame = 0
  88              		@ frame_needed = 0, uses_anonymous_args = 0
  89              	.LVL8:
  90 0000 38B5     		push	{r3, r4, r5, lr}
  91              		.cfi_def_cfa_offset 16
  92              		.cfi_offset 3, -16
  93              		.cfi_offset 4, -12
  94              		.cfi_offset 5, -8
  95              		.cfi_offset 14, -4
  96 0002 0D46     		mov	r5, r1
  32:source\asw/swc_logging.c ****         buffer[0] = '0';
ARM GAS  C:\Users\zakis\AppData\Local\Temp\cc42xQ8h.s 			page 4


  97              		.loc 1 32 0
  98 0004 0028     		cmp	r0, #0
  99              	.LVL9:
 100 0006 14DC     		bgt	.L9
  33:source\asw/swc_logging.c ****         buffer[1] = '\0';
 101              		.loc 1 33 0
 102 0008 3023     		movs	r3, #48
 103 000a 0B70     		strb	r3, [r1]
  34:source\asw/swc_logging.c ****         return RC_SUCCESS;
 104              		.loc 1 34 0
 105 000c 0023     		movs	r3, #0
 106 000e 4B70     		strb	r3, [r1, #1]
  35:source\asw/swc_logging.c ****     }
 107              		.loc 1 35 0
 108 0010 18E0     		b	.L7
 109              	.LVL10:
 110              	.L8:
 111              	.LBB10:
  42:source\asw/swc_logging.c ****         buffer[i++] = digit + '0';
 112              		.loc 1 42 0
 113 0012 0D4B     		ldr	r3, .L11
 114 0014 83FB0032 		smull	r3, r2, r3, r0
 115 0018 C317     		asrs	r3, r0, #31
 116 001a C3EBA203 		rsb	r3, r3, r2, asr #2
 117 001e 03EB8304 		add	r4, r3, r3, lsl #2
 118 0022 6200     		lsls	r2, r4, #1
 119 0024 801A     		subs	r0, r0, r2
 120              	.LVL11:
 121 0026 40B2     		sxtb	r0, r0
 122              	.LVL12:
  43:source\asw/swc_logging.c ****         number = number / 10;
 123              		.loc 1 43 0
 124 0028 3030     		adds	r0, r0, #48
 125              	.LVL13:
 126 002a 6854     		strb	r0, [r5, r1]
  44:source\asw/swc_logging.c ****     }
 127              		.loc 1 44 0
 128 002c 58B2     		sxtb	r0, r3
 129              	.LVL14:
  43:source\asw/swc_logging.c ****         number = number / 10;
 130              		.loc 1 43 0
 131 002e 0131     		adds	r1, r1, #1
 132              	.LVL15:
 133 0030 00E0     		b	.L6
 134              	.LVL16:
 135              	.L9:
 136              	.LBE10:
 137 0032 0021     		movs	r1, #0
 138              	.LVL17:
 139              	.L6:
  41:source\asw/swc_logging.c ****         int digit = number % 10;
 140              		.loc 1 41 0
 141 0034 0028     		cmp	r0, #0
 142 0036 ECD1     		bne	.L8
  48:source\asw/swc_logging.c **** 
 143              		.loc 1 48 0
 144 0038 0023     		movs	r3, #0
ARM GAS  C:\Users\zakis\AppData\Local\Temp\cc42xQ8h.s 			page 5


 145 003a 6B54     		strb	r3, [r5, r1]
  51:source\asw/swc_logging.c **** 
 146              		.loc 1 51 0
 147 003c C9B2     		uxtb	r1, r1
 148              	.LVL18:
 149 003e 2846     		mov	r0, r5
 150              	.LVL19:
 151 0040 FFF7FEFF 		bl	reverseString
 152              	.LVL20:
 153              	.L7:
  54:source\asw/swc_logging.c **** 
 154              		.loc 1 54 0
 155 0044 0020     		movs	r0, #0
 156 0046 38BD     		pop	{r3, r4, r5, pc}
 157              	.LVL21:
 158              	.L12:
 159              		.align	2
 160              	.L11:
 161 0048 67666666 		.word	1717986919
 162              		.cfi_endproc
 163              	.LFE166:
 164              		.size	convertToString, .-convertToString
 165              		.section	.text.LOGGING_logging_run,"ax",%progbits
 166              		.align	2
 167              		.global	LOGGING_logging_run
 168              		.thumb
 169              		.thumb_func
 170              		.type	LOGGING_logging_run, %function
 171              	LOGGING_logging_run:
 172              	.LFB168:
  72:source\asw/swc_logging.c **** 
  73:source\asw/swc_logging.c **** /* USER CODE END SWC_LOGGING_USERDEFINITIONS */
  74:source\asw/swc_logging.c **** 
  75:source\asw/swc_logging.c **** 
  76:source\asw/swc_logging.c **** 
  77:source\asw/swc_logging.c **** /*
  78:source\asw/swc_logging.c ****  * component: swc_logging
  79:source\asw/swc_logging.c ****  * cycletime: 0
  80:source\asw/swc_logging.c ****  * description: Runnable
  81:source\asw/swc_logging.c ****  * events: 
  82:source\asw/swc_logging.c ****  * name: LOGGING_logging_run
  83:source\asw/swc_logging.c ****  * shortname: logging
  84:source\asw/swc_logging.c ****  * signalIN: so_joystick
  85:source\asw/swc_logging.c ****  * signalOUT: so_logging
  86:source\asw/swc_logging.c ****  * task: tsk_logging
  87:source\asw/swc_logging.c ****  */
  88:source\asw/swc_logging.c **** void LOGGING_logging_run(RTE_event ev){
 173              		.loc 1 88 0
 174              		.cfi_startproc
 175              		@ args = 0, pretend = 0, frame = 128
 176              		@ frame_needed = 0, uses_anonymous_args = 0
 177              	.LVL22:
 178 0000 30B5     		push	{r4, r5, lr}
 179              		.cfi_def_cfa_offset 12
 180              		.cfi_offset 4, -12
 181              		.cfi_offset 5, -8
 182              		.cfi_offset 14, -4
ARM GAS  C:\Users\zakis\AppData\Local\Temp\cc42xQ8h.s 			page 6


 183 0002 A1B0     		sub	sp, sp, #132
 184              		.cfi_def_cfa_offset 144
 185              	.LVL23:
 186              	.LBB11:
 187              	.LBB12:
 188              		.file 2 ".\\source\\rte/sc_joystick.h"
   1:.\source\rte/sc_joystick.h **** 
   2:.\source\rte/sc_joystick.h **** 
   3:.\source\rte/sc_joystick.h **** /**
   4:.\source\rte/sc_joystick.h ****  *  file    SC_JOYSTICK_signal.h
   5:.\source\rte/sc_joystick.h ****  *
   6:.\source\rte/sc_joystick.h ****  *  brief   signal base class for signal sc_joystick
   7:.\source\rte/sc_joystick.h ****  *
   8:.\source\rte/sc_joystick.h ****  *  author  Autogenerated, Peter Fromm       <peter.fromm@h-da.de>
   9:.\source\rte/sc_joystick.h ****  *
  10:.\source\rte/sc_joystick.h ****  * description: Signal for Joystick 
  11:.\source\rte/sc_joystick.h ****  * name: sc_joystick
  12:.\source\rte/sc_joystick.h ****  * shortname: joystick
  13:.\source\rte/sc_joystick.h ****  *
  14:.\source\rte/sc_joystick.h ****  */
  15:.\source\rte/sc_joystick.h **** 
  16:.\source\rte/sc_joystick.h **** 
  17:.\source\rte/sc_joystick.h **** 
  18:.\source\rte/sc_joystick.h **** #ifndef SC_JOYSTICK_SIGNAL_H_INCLUDED
  19:.\source\rte/sc_joystick.h **** #define SC_JOYSTICK_SIGNAL_H_INCLUDED
  20:.\source\rte/sc_joystick.h **** 
  21:.\source\rte/sc_joystick.h **** /*================================================[ public includes  ]=============================
  22:.\source\rte/sc_joystick.h **** #include "global.h"
  23:.\source\rte/sc_joystick.h **** #include "project.h"
  24:.\source\rte/sc_joystick.h **** #include "rte.h"
  25:.\source\rte/sc_joystick.h **** #include "rte_types.h"
  26:.\source\rte/sc_joystick.h **** 
  27:.\source\rte/sc_joystick.h **** #include "sc_joystick_type.h"
  28:.\source\rte/sc_joystick.h **** 
  29:.\source\rte/sc_joystick.h **** 
  30:.\source\rte/sc_joystick.h **** /**************************************************************************************************
  31:.\source\rte/sc_joystick.h **** /* The driver API block																						*/
  32:.\source\rte/sc_joystick.h **** /**************************************************************************************************
  33:.\source\rte/sc_joystick.h ****                                                                                                    
  34:.\source\rte/sc_joystick.h **** /**
  35:.\source\rte/sc_joystick.h ****  *  Definition of function types for driver interfaces.
  36:.\source\rte/sc_joystick.h ****  *  I-Port
  37:.\source\rte/sc_joystick.h ****  */
  38:.\source\rte/sc_joystick.h **** typedef RC_t (*SC_JOYSTICK_driverIn_t)(SC_JOYSTICK_data_t * const);
  39:.\source\rte/sc_joystick.h **** 
  40:.\source\rte/sc_joystick.h **** /**
  41:.\source\rte/sc_joystick.h ****  *  Definition of function types for driver interfaces.
  42:.\source\rte/sc_joystick.h ****  *  O-Port
  43:.\source\rte/sc_joystick.h ****  */
  44:.\source\rte/sc_joystick.h **** typedef RC_t (*SC_JOYSTICK_driverOut_t)( const SC_JOYSTICK_data_t * const);
  45:.\source\rte/sc_joystick.h **** 
  46:.\source\rte/sc_joystick.h **** 
  47:.\source\rte/sc_joystick.h **** /**************************************************************************************************
  48:.\source\rte/sc_joystick.h **** /* The signal configuration API block																				*/
  49:.\source\rte/sc_joystick.h **** /**************************************************************************************************
  50:.\source\rte/sc_joystick.h **** 
  51:.\source\rte/sc_joystick.h **** /**
ARM GAS  C:\Users\zakis\AppData\Local\Temp\cc42xQ8h.s 			page 7


  52:.\source\rte/sc_joystick.h ****  * Instances of the struct SC_JOYSTICK_cfg_t represent the signal object configuration.
  53:.\source\rte/sc_joystick.h ****  */
  54:.\source\rte/sc_joystick.h **** struct SC_JOYSTICK_cfg_s
  55:.\source\rte/sc_joystick.h **** {
  56:.\source\rte/sc_joystick.h ****     /**
  57:.\source\rte/sc_joystick.h ****      * Function pointer to the input driver
  58:.\source\rte/sc_joystick.h ****      */
  59:.\source\rte/sc_joystick.h ****     SC_JOYSTICK_driverIn_t const inDriver;
  60:.\source\rte/sc_joystick.h **** 
  61:.\source\rte/sc_joystick.h ****     /**
  62:.\source\rte/sc_joystick.h ****      * Function pointer to the output driver table
  63:.\source\rte/sc_joystick.h ****      */
  64:.\source\rte/sc_joystick.h ****    SC_JOYSTICK_driverOut_t const outDriver;
  65:.\source\rte/sc_joystick.h ****    
  66:.\source\rte/sc_joystick.h ****     /**
  67:.\source\rte/sc_joystick.h ****      * Event onUpdate
  68:.\source\rte/sc_joystick.h ****      */
  69:.\source\rte/sc_joystick.h ****     EventMaskType const evOnUpdate;
  70:.\source\rte/sc_joystick.h ****     
  71:.\source\rte/sc_joystick.h ****     
  72:.\source\rte/sc_joystick.h ****     /**
  73:.\source\rte/sc_joystick.h ****      * Event onError
  74:.\source\rte/sc_joystick.h ****      */
  75:.\source\rte/sc_joystick.h ****     EventMaskType const evOnError;
  76:.\source\rte/sc_joystick.h ****     
  77:.\source\rte/sc_joystick.h ****     /**
  78:.\source\rte/sc_joystick.h ****      * Task Count onUpdate
  79:.\source\rte/sc_joystick.h ****      */
  80:.\source\rte/sc_joystick.h ****     size_t const onUpdateTaskCount;
  81:.\source\rte/sc_joystick.h **** 
  82:.\source\rte/sc_joystick.h ****     /**
  83:.\source\rte/sc_joystick.h ****      * Task List onUpdate
  84:.\source\rte/sc_joystick.h ****      */
  85:.\source\rte/sc_joystick.h ****     TaskTypeArray* const onUpdateTasks;
  86:.\source\rte/sc_joystick.h ****     
  87:.\source\rte/sc_joystick.h ****     /**
  88:.\source\rte/sc_joystick.h ****      * Task Count onError
  89:.\source\rte/sc_joystick.h ****      */
  90:.\source\rte/sc_joystick.h ****     size_t const onErrorTaskCount;
  91:.\source\rte/sc_joystick.h **** 
  92:.\source\rte/sc_joystick.h ****     /**
  93:.\source\rte/sc_joystick.h ****      * Task List onError
  94:.\source\rte/sc_joystick.h ****      */
  95:.\source\rte/sc_joystick.h ****     TaskTypeArray* const onErrorTasks;
  96:.\source\rte/sc_joystick.h **** 	
  97:.\source\rte/sc_joystick.h **** 	
  98:.\source\rte/sc_joystick.h **** 	/**
  99:.\source\rte/sc_joystick.h **** 	 * Ressourse is active? We need an additional boolean as a ressource value 0 is valid.
 100:.\source\rte/sc_joystick.h **** 	 */
 101:.\source\rte/sc_joystick.h **** 	 boolean_t const resourceActive;
 102:.\source\rte/sc_joystick.h **** 	 
 103:.\source\rte/sc_joystick.h **** 	/**
 104:.\source\rte/sc_joystick.h **** 	 * Ressourse 
 105:.\source\rte/sc_joystick.h **** 	 */
 106:.\source\rte/sc_joystick.h **** 	 ResourceType const resource;
 107:.\source\rte/sc_joystick.h **** 
 108:.\source\rte/sc_joystick.h **** };                                                                                                 
ARM GAS  C:\Users\zakis\AppData\Local\Temp\cc42xQ8h.s 			page 8


 109:.\source\rte/sc_joystick.h **** typedef const struct SC_JOYSTICK_cfg_s SC_JOYSTICK_cfg_t;
 110:.\source\rte/sc_joystick.h ****                               
 111:.\source\rte/sc_joystick.h **** /**************************************************************************************************
 112:.\source\rte/sc_joystick.h **** /* The data interface block																							*/
 113:.\source\rte/sc_joystick.h **** /**************************************************************************************************
 114:.\source\rte/sc_joystick.h **** 
 115:.\source\rte/sc_joystick.h ****                                                                                                    
 116:.\source\rte/sc_joystick.h **** 							  
 117:.\source\rte/sc_joystick.h **** /**
 118:.\source\rte/sc_joystick.h ****  * Instances of the struct SC_JOYSTICK_t represent the signal objects.
 119:.\source\rte/sc_joystick.h ****  * A signal object contains the current application value 'value' as well as relevant meta data.
 120:.\source\rte/sc_joystick.h ****  */
 121:.\source\rte/sc_joystick.h **** struct SC_JOYSTICK_s
 122:.\source\rte/sc_joystick.h **** {                                                                                                  
 123:.\source\rte/sc_joystick.h **** 
 124:.\source\rte/sc_joystick.h **** 	/**
 125:.\source\rte/sc_joystick.h **** 	 * Data buffer for the application value
 126:.\source\rte/sc_joystick.h **** 	 */
 127:.\source\rte/sc_joystick.h ****     SC_JOYSTICK_data_t value;
 128:.\source\rte/sc_joystick.h **** 
 129:.\source\rte/sc_joystick.h ****     /**
 130:.\source\rte/sc_joystick.h ****      * Current signal status
 131:.\source\rte/sc_joystick.h ****      */
 132:.\source\rte/sc_joystick.h ****     RTE_signalStatus_t status;
 133:.\source\rte/sc_joystick.h **** 
 134:.\source\rte/sc_joystick.h ****     /**
 135:.\source\rte/sc_joystick.h ****      * Current age of the signal (in calling cycles)
 136:.\source\rte/sc_joystick.h ****      */
 137:.\source\rte/sc_joystick.h ****     uint32_t age;
 138:.\source\rte/sc_joystick.h **** 
 139:.\source\rte/sc_joystick.h ****     /**
 140:.\source\rte/sc_joystick.h ****      * Pointer to the signal configuration
 141:.\source\rte/sc_joystick.h ****      */
 142:.\source\rte/sc_joystick.h **** 	const SC_JOYSTICK_cfg_t * const    pSigCfg;
 143:.\source\rte/sc_joystick.h **** 
 144:.\source\rte/sc_joystick.h **** };                                                                                                 
 145:.\source\rte/sc_joystick.h **** typedef struct SC_JOYSTICK_s SC_JOYSTICK_t;
 146:.\source\rte/sc_joystick.h **** 
 147:.\source\rte/sc_joystick.h **** /**************************************************************************************************
 148:.\source\rte/sc_joystick.h **** /* Signal initialisation   																							*/
 149:.\source\rte/sc_joystick.h **** /**************************************************************************************************
 150:.\source\rte/sc_joystick.h **** 
 151:.\source\rte/sc_joystick.h **** /**
 152:.\source\rte/sc_joystick.h ****  * Initializes a signal instance with a passed init value.
 153:.\source\rte/sc_joystick.h ****  * Depending on the configured conversion or scaling function the raw_value will be calculated.
 154:.\source\rte/sc_joystick.h ****  * Signal status will change from RTE_SIGNALSTATUS_STARTUP to RTE_SIGNALSTATUS_INITIALIZED.
 155:.\source\rte/sc_joystick.h ****  *
 156:.\source\rte/sc_joystick.h ****  * @param  SC_JOYSTICK_t * const signal: Pointer to the signal object which will be initialised
 157:.\source\rte/sc_joystick.h ****  * @return RC_t: standard return code, currently only RC_SUCCESS
 158:.\source\rte/sc_joystick.h ****  *
 159:.\source\rte/sc_joystick.h ****  **/
 160:.\source\rte/sc_joystick.h **** inline RC_t RTE_SC_JOYSTICK_init( SC_JOYSTICK_t * const signal )
 161:.\source\rte/sc_joystick.h **** {                                                                                                  
 162:.\source\rte/sc_joystick.h **** 
 163:.\source\rte/sc_joystick.h ****    RC_t ret = RC_SUCCESS;
 164:.\source\rte/sc_joystick.h **** 
 165:.\source\rte/sc_joystick.h ****    //Set value and raw value
ARM GAS  C:\Users\zakis\AppData\Local\Temp\cc42xQ8h.s 			page 9


 166:.\source\rte/sc_joystick.h ****    signal->value  = SC_JOYSTICK_INIT_DATA;
 167:.\source\rte/sc_joystick.h ****    signal->age    = 0;
 168:.\source\rte/sc_joystick.h ****    signal->status = RTE_SIGNALSTATUS_INITIALIZED;
 169:.\source\rte/sc_joystick.h **** 
 170:.\source\rte/sc_joystick.h ****    return ret;
 171:.\source\rte/sc_joystick.h **** }
 172:.\source\rte/sc_joystick.h **** 
 173:.\source\rte/sc_joystick.h **** /**************************************************************************************************
 174:.\source\rte/sc_joystick.h **** /* Status and timeout control																						*/
 175:.\source\rte/sc_joystick.h **** /**************************************************************************************************
 176:.\source\rte/sc_joystick.h **** 
 177:.\source\rte/sc_joystick.h **** /**
 178:.\source\rte/sc_joystick.h ****  *  Returns the current signal status of the passed signal instance.
 179:.\source\rte/sc_joystick.h ****  *
 180:.\source\rte/sc_joystick.h ****  * @param  SC_JOYSTICK_t * const signal: Pointer to the signal object
 181:.\source\rte/sc_joystick.h ****  * @return  sig_status_t: The current signal status
 182:.\source\rte/sc_joystick.h ****  *
 183:.\source\rte/sc_joystick.h ****  **/
 184:.\source\rte/sc_joystick.h **** inline RTE_signalStatus_t RTE_SC_JOYSTICK_getStatus( const SC_JOYSTICK_t * const signal )
 185:.\source\rte/sc_joystick.h **** {
 186:.\source\rte/sc_joystick.h ****    return signal->status;
 187:.\source\rte/sc_joystick.h **** }
 188:.\source\rte/sc_joystick.h **** 
 189:.\source\rte/sc_joystick.h **** 
 190:.\source\rte/sc_joystick.h **** /**
 191:.\source\rte/sc_joystick.h ****  *  Sets a new signal status of the passed signal instance by passing the new status.
 192:.\source\rte/sc_joystick.h ****  *
 193:.\source\rte/sc_joystick.h ****  * @param  SC_JOYSTICK_t * const signal: Pointer to the signal object
 194:.\source\rte/sc_joystick.h ****  * @param  const sig_status_t status: New signal status
 195:.\source\rte/sc_joystick.h ****  * @return RC_t: standard return code, currently only RC_SUCCESS
 196:.\source\rte/sc_joystick.h ****  *
 197:.\source\rte/sc_joystick.h ****  */
 198:.\source\rte/sc_joystick.h **** inline RC_t RTE_SC_JOYSTICK_setStatus( SC_JOYSTICK_t * const signal, const RTE_signalStatus_t statu
 199:.\source\rte/sc_joystick.h **** {
 200:.\source\rte/sc_joystick.h ****    signal->status = status;
 201:.\source\rte/sc_joystick.h ****    size_t taskNum=0;
 202:.\source\rte/sc_joystick.h ****    
 203:.\source\rte/sc_joystick.h ****    //Fire error events in case of invalid state
 204:.\source\rte/sc_joystick.h ****    if (signal->status == RTE_SIGNALSTATUS_INVALID)
 205:.\source\rte/sc_joystick.h ****    {
 206:.\source\rte/sc_joystick.h **** 	    //Pointer to the Taskarray, containing the tasks receiving the onUpdate events
 207:.\source\rte/sc_joystick.h **** 		TaskTypeArray* pTaskArray = signal->pSigCfg->onErrorTasks;
 208:.\source\rte/sc_joystick.h **** 
 209:.\source\rte/sc_joystick.h **** 		if (0 != signal->pSigCfg->evOnError && NULL != pTaskArray){
 210:.\source\rte/sc_joystick.h **** 			for( taskNum=0 ; taskNum < signal->pSigCfg->onErrorTaskCount ;taskNum++){
 211:.\source\rte/sc_joystick.h **** 				TaskType task = (*pTaskArray)[taskNum];
 212:.\source\rte/sc_joystick.h **** 				SetEvent( task, signal->pSigCfg->evOnError);
 213:.\source\rte/sc_joystick.h **** 			}
 214:.\source\rte/sc_joystick.h **** 		}
 215:.\source\rte/sc_joystick.h ****    }
 216:.\source\rte/sc_joystick.h ****    
 217:.\source\rte/sc_joystick.h ****    return RC_SUCCESS;
 218:.\source\rte/sc_joystick.h **** }
 219:.\source\rte/sc_joystick.h **** 
 220:.\source\rte/sc_joystick.h **** 
 221:.\source\rte/sc_joystick.h **** /**
 222:.\source\rte/sc_joystick.h ****  * Returns the count of refreshing trials (refresh, set or set_raw) that failed.
ARM GAS  C:\Users\zakis\AppData\Local\Temp\cc42xQ8h.s 			page 10


 223:.\source\rte/sc_joystick.h ****  * Prerquisite: The signal is refreshed cyclically
 224:.\source\rte/sc_joystick.h ****  *
 225:.\source\rte/sc_joystick.h ****  * @param  SC_JOYSTICK_t * const signal: Pointer to the signal object
 226:.\source\rte/sc_joystick.h ****  * @return uint32_t: Number of cycles since the signal has been updated for the last time
 227:.\source\rte/sc_joystick.h ****  */
 228:.\source\rte/sc_joystick.h **** inline uint32_t RTE_SC_JOYSTICK_getAge( const SC_JOYSTICK_t * const signal )
 229:.\source\rte/sc_joystick.h **** {
 230:.\source\rte/sc_joystick.h ****    return signal->age;
 231:.\source\rte/sc_joystick.h **** }
 232:.\source\rte/sc_joystick.h **** 
 233:.\source\rte/sc_joystick.h **** /**
 234:.\source\rte/sc_joystick.h ****  * Should be called by application or driver if no new value can be provided.
 235:.\source\rte/sc_joystick.h ****  * @param  SC_JOYSTICK_t * const signal: Pointer to the signal object
 236:.\source\rte/sc_joystick.h ****  * @param uint32_t increment: incrementvalue, typically in [ms]
 237:.\source\rte/sc_joystick.h ****  * @return void
 238:.\source\rte/sc_joystick.h ****  */
 239:.\source\rte/sc_joystick.h **** inline void RTE_SC_JOYSTICK_incAge(  SC_JOYSTICK_t * const signal , uint32_t increment)
 240:.\source\rte/sc_joystick.h **** {
 241:.\source\rte/sc_joystick.h **** 	   //Hack....
 242:.\source\rte/sc_joystick.h **** 	   if ( 0xFFFF0000 > (signal->age + increment) )
 243:.\source\rte/sc_joystick.h **** 	   {
 244:.\source\rte/sc_joystick.h **** 	      signal->age += increment;
 245:.\source\rte/sc_joystick.h **** 	   }
 246:.\source\rte/sc_joystick.h **** }
 247:.\source\rte/sc_joystick.h **** 
 248:.\source\rte/sc_joystick.h **** 
 249:.\source\rte/sc_joystick.h **** /**************************************************************************************************
 250:.\source\rte/sc_joystick.h **** /* Application Data read/write Interface																			*/
 251:.\source\rte/sc_joystick.h **** /**************************************************************************************************
 252:.\source\rte/sc_joystick.h **** 
 253:.\source\rte/sc_joystick.h **** /**
 254:.\source\rte/sc_joystick.h ****  * Returns the current application value as pointer to the signal payload.
 255:.\source\rte/sc_joystick.h ****  * Careful: This is not threadsafe!!!
 256:.\source\rte/sc_joystick.h ****  *
 257:.\source\rte/sc_joystick.h ****  * @param  SC_JOYSTICK_t * const signal: Pointer to the signal object
 258:.\source\rte/sc_joystick.h ****  * @return sc_joystick_data_t*: pointer to the current value of the application data buffer
 259:.\source\rte/sc_joystick.h ****  *
 260:.\source\rte/sc_joystick.h ****  **/
 261:.\source\rte/sc_joystick.h **** inline SC_JOYSTICK_data_t* RTE_SC_JOYSTICK_getPtr( SC_JOYSTICK_t * const signal )
 262:.\source\rte/sc_joystick.h **** {               
 263:.\source\rte/sc_joystick.h ****    //Todo: Critical region cannot be protected using return values																						
 264:.\source\rte/sc_joystick.h ****    return &(signal->value);                                                                        
 265:.\source\rte/sc_joystick.h **** }
 266:.\source\rte/sc_joystick.h **** 
 267:.\source\rte/sc_joystick.h **** /**
 268:.\source\rte/sc_joystick.h ****  * Returns the current application value of the passed signal instance.
 269:.\source\rte/sc_joystick.h ****  *
 270:.\source\rte/sc_joystick.h ****  * @param  SC_JOYSTICK_t * const signal: Pointer to the signal object
 271:.\source\rte/sc_joystick.h ****  * @return sc_joystick_data_t: current value of the application data buffer
 272:.\source\rte/sc_joystick.h ****  *
 273:.\source\rte/sc_joystick.h ****  **/
 274:.\source\rte/sc_joystick.h **** inline SC_JOYSTICK_data_t RTE_SC_JOYSTICK_get( const SC_JOYSTICK_t * const signal )
 275:.\source\rte/sc_joystick.h **** {               
 276:.\source\rte/sc_joystick.h ****    //Todo: Critical region cannot be protected using return values																						
 277:.\source\rte/sc_joystick.h ****    return signal->value;                                                                           
 189              		.loc 2 277 0
 190 0004 2D4B     		ldr	r3, .L22
ARM GAS  C:\Users\zakis\AppData\Local\Temp\cc42xQ8h.s 			page 11


 191 0006 1B78     		ldrb	r3, [r3]	@ zero_extendqisi2
 192 0008 8DF87C30 		strb	r3, [sp, #124]
 193              	.LVL24:
 194              	.LBE12:
 195              	.LBE11:
  89:source\asw/swc_logging.c **** 	
  90:source\asw/swc_logging.c **** 	/* USER CODE START LOGGING_logging_run */
  91:source\asw/swc_logging.c **** //    UART_Logs_PutString("In Logging swc\n");
  92:source\asw/swc_logging.c ****     
  93:source\asw/swc_logging.c ****     volatile SC_JOYSTICK_data_t joystick = RTE_SC_JOYSTICK_get(&SO_JOYSTICK_signal);
  94:source\asw/swc_logging.c ****     SC_LOGGING_data_t log = SC_LOGGING_INIT_DATA;
 196              		.loc 1 94 0
 197 000c 0023     		movs	r3, #0
 198 000e 1D93     		str	r3, [sp, #116]
 199 0010 8DF87830 		strb	r3, [sp, #120]
  95:source\asw/swc_logging.c ****     
  96:source\asw/swc_logging.c ****     sint8_t acceleratorValue = joystick.m_joystickValue;
 200              		.loc 1 96 0
 201 0014 9DF87C00 		ldrb	r0, [sp, #124]	@ zero_extendqisi2
 202              	.LVL25:
  97:source\asw/swc_logging.c ****     char buffer[100];
  98:source\asw/swc_logging.c ****     buffer[0] = '\0';
 203              		.loc 1 98 0
 204 0018 8DF81030 		strb	r3, [sp, #16]
  99:source\asw/swc_logging.c ****     char intBuffer[5];
 100:source\asw/swc_logging.c ****     convertToString(acceleratorValue, intBuffer);
 205              		.loc 1 100 0
 206 001c 02A9     		add	r1, sp, #8
 207 001e 40B2     		sxtb	r0, r0
 208 0020 FFF7FEFF 		bl	convertToString
 209              	.LVL26:
 101:source\asw/swc_logging.c ****     
 102:source\asw/swc_logging.c **** //    char* str = "Accelerator Value: ";
 103:source\asw/swc_logging.c **** //    strcat(buffer, str);
 104:source\asw/swc_logging.c ****     strcat(buffer, intBuffer);
 210              		.loc 1 104 0
 211 0024 04AC     		add	r4, sp, #16
 212 0026 02A9     		add	r1, sp, #8
 213 0028 2046     		mov	r0, r4
 214 002a FFF7FEFF 		bl	strcat
 215              	.LVL27:
 105:source\asw/swc_logging.c ****     strcat(buffer, "\n");
 216              		.loc 1 105 0
 217 002e 2046     		mov	r0, r4
 218 0030 FFF7FEFF 		bl	strlen
 219              	.LVL28:
 220 0034 224B     		ldr	r3, .L22+4
 221 0036 1B88     		ldrh	r3, [r3]	@ unaligned
 222 0038 2352     		strh	r3, [r4, r0]	@ unaligned
 106:source\asw/swc_logging.c ****     
 107:source\asw/swc_logging.c **** //    snprintf(buffer, sizeof(buffer), "Accelerator value: %d", acceleratorValue);
 108:source\asw/swc_logging.c ****     log.m_loggingValue = buffer;
 223              		.loc 1 108 0
 224 003a 1D94     		str	r4, [sp, #116]
 109:source\asw/swc_logging.c ****     log.dataSize = sizeof(buffer);
 225              		.loc 1 109 0
 226 003c 6423     		movs	r3, #100
ARM GAS  C:\Users\zakis\AppData\Local\Temp\cc42xQ8h.s 			page 12


 227 003e 8DF87830 		strb	r3, [sp, #120]
 228              	.LVL29:
 229 0042 1DAA     		add	r2, sp, #116
 230 0044 92E80300 		ldmia	r2, {r0, r1}
 231 0048 8DE80300 		stmia	sp, {r0, r1}
 232              	.LVL30:
 233              	.LBB13:
 234              	.LBB14:
 235              		.file 3 ".\\source\\rte/sc_logging.h"
   1:.\source\rte/sc_logging.h **** 
   2:.\source\rte/sc_logging.h **** 
   3:.\source\rte/sc_logging.h **** /**
   4:.\source\rte/sc_logging.h ****  *  file    SC_LOGGING_signal.h
   5:.\source\rte/sc_logging.h ****  *
   6:.\source\rte/sc_logging.h ****  *  brief   signal base class for signal sc_logging
   7:.\source\rte/sc_logging.h ****  *
   8:.\source\rte/sc_logging.h ****  *  author  Autogenerated, Peter Fromm       <peter.fromm@h-da.de>
   9:.\source\rte/sc_logging.h ****  *
  10:.\source\rte/sc_logging.h ****  * description: signal for HMI devices
  11:.\source\rte/sc_logging.h ****  * name: sc_logging
  12:.\source\rte/sc_logging.h ****  * shortname: logging
  13:.\source\rte/sc_logging.h ****  *
  14:.\source\rte/sc_logging.h ****  */
  15:.\source\rte/sc_logging.h **** 
  16:.\source\rte/sc_logging.h **** 
  17:.\source\rte/sc_logging.h **** 
  18:.\source\rte/sc_logging.h **** #ifndef SC_LOGGING_SIGNAL_H_INCLUDED
  19:.\source\rte/sc_logging.h **** #define SC_LOGGING_SIGNAL_H_INCLUDED
  20:.\source\rte/sc_logging.h **** 
  21:.\source\rte/sc_logging.h **** /*================================================[ public includes  ]=============================
  22:.\source\rte/sc_logging.h **** #include "global.h"
  23:.\source\rte/sc_logging.h **** #include "project.h"
  24:.\source\rte/sc_logging.h **** #include "rte.h"
  25:.\source\rte/sc_logging.h **** #include "rte_types.h"
  26:.\source\rte/sc_logging.h **** 
  27:.\source\rte/sc_logging.h **** #include "sc_logging_type.h"
  28:.\source\rte/sc_logging.h **** 
  29:.\source\rte/sc_logging.h **** 
  30:.\source\rte/sc_logging.h **** /**************************************************************************************************
  31:.\source\rte/sc_logging.h **** /* The driver API block																						*/
  32:.\source\rte/sc_logging.h **** /**************************************************************************************************
  33:.\source\rte/sc_logging.h ****                                                                                                    
  34:.\source\rte/sc_logging.h **** /**
  35:.\source\rte/sc_logging.h ****  *  Definition of function types for driver interfaces.
  36:.\source\rte/sc_logging.h ****  *  I-Port
  37:.\source\rte/sc_logging.h ****  */
  38:.\source\rte/sc_logging.h **** typedef RC_t (*SC_LOGGING_driverIn_t)(SC_LOGGING_data_t * const);
  39:.\source\rte/sc_logging.h **** 
  40:.\source\rte/sc_logging.h **** /**
  41:.\source\rte/sc_logging.h ****  *  Definition of function types for driver interfaces.
  42:.\source\rte/sc_logging.h ****  *  O-Port
  43:.\source\rte/sc_logging.h ****  */
  44:.\source\rte/sc_logging.h **** typedef RC_t (*SC_LOGGING_driverOut_t)( const SC_LOGGING_data_t * const);
  45:.\source\rte/sc_logging.h **** 
  46:.\source\rte/sc_logging.h **** 
  47:.\source\rte/sc_logging.h **** /**************************************************************************************************
  48:.\source\rte/sc_logging.h **** /* The signal configuration API block																				*/
ARM GAS  C:\Users\zakis\AppData\Local\Temp\cc42xQ8h.s 			page 13


  49:.\source\rte/sc_logging.h **** /**************************************************************************************************
  50:.\source\rte/sc_logging.h **** 
  51:.\source\rte/sc_logging.h **** /**
  52:.\source\rte/sc_logging.h ****  * Instances of the struct SC_LOGGING_cfg_t represent the signal object configuration.
  53:.\source\rte/sc_logging.h ****  */
  54:.\source\rte/sc_logging.h **** struct SC_LOGGING_cfg_s
  55:.\source\rte/sc_logging.h **** {
  56:.\source\rte/sc_logging.h ****     /**
  57:.\source\rte/sc_logging.h ****      * Function pointer to the input driver
  58:.\source\rte/sc_logging.h ****      */
  59:.\source\rte/sc_logging.h ****     SC_LOGGING_driverIn_t const inDriver;
  60:.\source\rte/sc_logging.h **** 
  61:.\source\rte/sc_logging.h ****     /**
  62:.\source\rte/sc_logging.h ****      * Function pointer to the output driver table
  63:.\source\rte/sc_logging.h ****      */
  64:.\source\rte/sc_logging.h ****    SC_LOGGING_driverOut_t const outDriver;
  65:.\source\rte/sc_logging.h ****    
  66:.\source\rte/sc_logging.h ****     /**
  67:.\source\rte/sc_logging.h ****      * Event onUpdate
  68:.\source\rte/sc_logging.h ****      */
  69:.\source\rte/sc_logging.h ****     EventMaskType const evOnUpdate;
  70:.\source\rte/sc_logging.h ****     
  71:.\source\rte/sc_logging.h ****     
  72:.\source\rte/sc_logging.h ****     /**
  73:.\source\rte/sc_logging.h ****      * Event onError
  74:.\source\rte/sc_logging.h ****      */
  75:.\source\rte/sc_logging.h ****     EventMaskType const evOnError;
  76:.\source\rte/sc_logging.h ****     
  77:.\source\rte/sc_logging.h ****     /**
  78:.\source\rte/sc_logging.h ****      * Task Count onUpdate
  79:.\source\rte/sc_logging.h ****      */
  80:.\source\rte/sc_logging.h ****     size_t const onUpdateTaskCount;
  81:.\source\rte/sc_logging.h **** 
  82:.\source\rte/sc_logging.h ****     /**
  83:.\source\rte/sc_logging.h ****      * Task List onUpdate
  84:.\source\rte/sc_logging.h ****      */
  85:.\source\rte/sc_logging.h ****     TaskTypeArray* const onUpdateTasks;
  86:.\source\rte/sc_logging.h ****     
  87:.\source\rte/sc_logging.h ****     /**
  88:.\source\rte/sc_logging.h ****      * Task Count onError
  89:.\source\rte/sc_logging.h ****      */
  90:.\source\rte/sc_logging.h ****     size_t const onErrorTaskCount;
  91:.\source\rte/sc_logging.h **** 
  92:.\source\rte/sc_logging.h ****     /**
  93:.\source\rte/sc_logging.h ****      * Task List onError
  94:.\source\rte/sc_logging.h ****      */
  95:.\source\rte/sc_logging.h ****     TaskTypeArray* const onErrorTasks;
  96:.\source\rte/sc_logging.h **** 	
  97:.\source\rte/sc_logging.h **** 	
  98:.\source\rte/sc_logging.h **** 	/**
  99:.\source\rte/sc_logging.h **** 	 * Ressourse is active? We need an additional boolean as a ressource value 0 is valid.
 100:.\source\rte/sc_logging.h **** 	 */
 101:.\source\rte/sc_logging.h **** 	 boolean_t const resourceActive;
 102:.\source\rte/sc_logging.h **** 	 
 103:.\source\rte/sc_logging.h **** 	/**
 104:.\source\rte/sc_logging.h **** 	 * Ressourse 
 105:.\source\rte/sc_logging.h **** 	 */
ARM GAS  C:\Users\zakis\AppData\Local\Temp\cc42xQ8h.s 			page 14


 106:.\source\rte/sc_logging.h **** 	 ResourceType const resource;
 107:.\source\rte/sc_logging.h **** 
 108:.\source\rte/sc_logging.h **** };                                                                                                 
 109:.\source\rte/sc_logging.h **** typedef const struct SC_LOGGING_cfg_s SC_LOGGING_cfg_t;
 110:.\source\rte/sc_logging.h ****                               
 111:.\source\rte/sc_logging.h **** /**************************************************************************************************
 112:.\source\rte/sc_logging.h **** /* The data interface block																							*/
 113:.\source\rte/sc_logging.h **** /**************************************************************************************************
 114:.\source\rte/sc_logging.h **** 
 115:.\source\rte/sc_logging.h ****                                                                                                    
 116:.\source\rte/sc_logging.h **** 							  
 117:.\source\rte/sc_logging.h **** /**
 118:.\source\rte/sc_logging.h ****  * Instances of the struct SC_LOGGING_t represent the signal objects.
 119:.\source\rte/sc_logging.h ****  * A signal object contains the current application value 'value' as well as relevant meta data.
 120:.\source\rte/sc_logging.h ****  */
 121:.\source\rte/sc_logging.h **** struct SC_LOGGING_s
 122:.\source\rte/sc_logging.h **** {                                                                                                  
 123:.\source\rte/sc_logging.h **** 
 124:.\source\rte/sc_logging.h **** 	/**
 125:.\source\rte/sc_logging.h **** 	 * Data buffer for the application value
 126:.\source\rte/sc_logging.h **** 	 */
 127:.\source\rte/sc_logging.h ****     SC_LOGGING_data_t value;
 128:.\source\rte/sc_logging.h **** 
 129:.\source\rte/sc_logging.h ****     /**
 130:.\source\rte/sc_logging.h ****      * Current signal status
 131:.\source\rte/sc_logging.h ****      */
 132:.\source\rte/sc_logging.h ****     RTE_signalStatus_t status;
 133:.\source\rte/sc_logging.h **** 
 134:.\source\rte/sc_logging.h ****     /**
 135:.\source\rte/sc_logging.h ****      * Current age of the signal (in calling cycles)
 136:.\source\rte/sc_logging.h ****      */
 137:.\source\rte/sc_logging.h ****     uint32_t age;
 138:.\source\rte/sc_logging.h **** 
 139:.\source\rte/sc_logging.h ****     /**
 140:.\source\rte/sc_logging.h ****      * Pointer to the signal configuration
 141:.\source\rte/sc_logging.h ****      */
 142:.\source\rte/sc_logging.h **** 	const SC_LOGGING_cfg_t * const    pSigCfg;
 143:.\source\rte/sc_logging.h **** 
 144:.\source\rte/sc_logging.h **** };                                                                                                 
 145:.\source\rte/sc_logging.h **** typedef struct SC_LOGGING_s SC_LOGGING_t;
 146:.\source\rte/sc_logging.h **** 
 147:.\source\rte/sc_logging.h **** /**************************************************************************************************
 148:.\source\rte/sc_logging.h **** /* Signal initialisation   																							*/
 149:.\source\rte/sc_logging.h **** /**************************************************************************************************
 150:.\source\rte/sc_logging.h **** 
 151:.\source\rte/sc_logging.h **** /**
 152:.\source\rte/sc_logging.h ****  * Initializes a signal instance with a passed init value.
 153:.\source\rte/sc_logging.h ****  * Depending on the configured conversion or scaling function the raw_value will be calculated.
 154:.\source\rte/sc_logging.h ****  * Signal status will change from RTE_SIGNALSTATUS_STARTUP to RTE_SIGNALSTATUS_INITIALIZED.
 155:.\source\rte/sc_logging.h ****  *
 156:.\source\rte/sc_logging.h ****  * @param  SC_LOGGING_t * const signal: Pointer to the signal object which will be initialised
 157:.\source\rte/sc_logging.h ****  * @return RC_t: standard return code, currently only RC_SUCCESS
 158:.\source\rte/sc_logging.h ****  *
 159:.\source\rte/sc_logging.h ****  **/
 160:.\source\rte/sc_logging.h **** inline RC_t RTE_SC_LOGGING_init( SC_LOGGING_t * const signal )
 161:.\source\rte/sc_logging.h **** {                                                                                                  
 162:.\source\rte/sc_logging.h **** 
ARM GAS  C:\Users\zakis\AppData\Local\Temp\cc42xQ8h.s 			page 15


 163:.\source\rte/sc_logging.h ****    RC_t ret = RC_SUCCESS;
 164:.\source\rte/sc_logging.h **** 
 165:.\source\rte/sc_logging.h ****    //Set value and raw value
 166:.\source\rte/sc_logging.h ****    signal->value  = SC_LOGGING_INIT_DATA;
 167:.\source\rte/sc_logging.h ****    signal->age    = 0;
 168:.\source\rte/sc_logging.h ****    signal->status = RTE_SIGNALSTATUS_INITIALIZED;
 169:.\source\rte/sc_logging.h **** 
 170:.\source\rte/sc_logging.h ****    return ret;
 171:.\source\rte/sc_logging.h **** }
 172:.\source\rte/sc_logging.h **** 
 173:.\source\rte/sc_logging.h **** /**************************************************************************************************
 174:.\source\rte/sc_logging.h **** /* Status and timeout control																						*/
 175:.\source\rte/sc_logging.h **** /**************************************************************************************************
 176:.\source\rte/sc_logging.h **** 
 177:.\source\rte/sc_logging.h **** /**
 178:.\source\rte/sc_logging.h ****  *  Returns the current signal status of the passed signal instance.
 179:.\source\rte/sc_logging.h ****  *
 180:.\source\rte/sc_logging.h ****  * @param  SC_LOGGING_t * const signal: Pointer to the signal object
 181:.\source\rte/sc_logging.h ****  * @return  sig_status_t: The current signal status
 182:.\source\rte/sc_logging.h ****  *
 183:.\source\rte/sc_logging.h ****  **/
 184:.\source\rte/sc_logging.h **** inline RTE_signalStatus_t RTE_SC_LOGGING_getStatus( const SC_LOGGING_t * const signal )
 185:.\source\rte/sc_logging.h **** {
 186:.\source\rte/sc_logging.h ****    return signal->status;
 187:.\source\rte/sc_logging.h **** }
 188:.\source\rte/sc_logging.h **** 
 189:.\source\rte/sc_logging.h **** 
 190:.\source\rte/sc_logging.h **** /**
 191:.\source\rte/sc_logging.h ****  *  Sets a new signal status of the passed signal instance by passing the new status.
 192:.\source\rte/sc_logging.h ****  *
 193:.\source\rte/sc_logging.h ****  * @param  SC_LOGGING_t * const signal: Pointer to the signal object
 194:.\source\rte/sc_logging.h ****  * @param  const sig_status_t status: New signal status
 195:.\source\rte/sc_logging.h ****  * @return RC_t: standard return code, currently only RC_SUCCESS
 196:.\source\rte/sc_logging.h ****  *
 197:.\source\rte/sc_logging.h ****  */
 198:.\source\rte/sc_logging.h **** inline RC_t RTE_SC_LOGGING_setStatus( SC_LOGGING_t * const signal, const RTE_signalStatus_t status 
 199:.\source\rte/sc_logging.h **** {
 200:.\source\rte/sc_logging.h ****    signal->status = status;
 201:.\source\rte/sc_logging.h ****    size_t taskNum=0;
 202:.\source\rte/sc_logging.h ****    
 203:.\source\rte/sc_logging.h ****    //Fire error events in case of invalid state
 204:.\source\rte/sc_logging.h ****    if (signal->status == RTE_SIGNALSTATUS_INVALID)
 205:.\source\rte/sc_logging.h ****    {
 206:.\source\rte/sc_logging.h **** 	    //Pointer to the Taskarray, containing the tasks receiving the onUpdate events
 207:.\source\rte/sc_logging.h **** 		TaskTypeArray* pTaskArray = signal->pSigCfg->onErrorTasks;
 208:.\source\rte/sc_logging.h **** 
 209:.\source\rte/sc_logging.h **** 		if (0 != signal->pSigCfg->evOnError && NULL != pTaskArray){
 210:.\source\rte/sc_logging.h **** 			for( taskNum=0 ; taskNum < signal->pSigCfg->onErrorTaskCount ;taskNum++){
 211:.\source\rte/sc_logging.h **** 				TaskType task = (*pTaskArray)[taskNum];
 212:.\source\rte/sc_logging.h **** 				SetEvent( task, signal->pSigCfg->evOnError);
 213:.\source\rte/sc_logging.h **** 			}
 214:.\source\rte/sc_logging.h **** 		}
 215:.\source\rte/sc_logging.h ****    }
 216:.\source\rte/sc_logging.h ****    
 217:.\source\rte/sc_logging.h ****    return RC_SUCCESS;
 218:.\source\rte/sc_logging.h **** }
 219:.\source\rte/sc_logging.h **** 
ARM GAS  C:\Users\zakis\AppData\Local\Temp\cc42xQ8h.s 			page 16


 220:.\source\rte/sc_logging.h **** 
 221:.\source\rte/sc_logging.h **** /**
 222:.\source\rte/sc_logging.h ****  * Returns the count of refreshing trials (refresh, set or set_raw) that failed.
 223:.\source\rte/sc_logging.h ****  * Prerquisite: The signal is refreshed cyclically
 224:.\source\rte/sc_logging.h ****  *
 225:.\source\rte/sc_logging.h ****  * @param  SC_LOGGING_t * const signal: Pointer to the signal object
 226:.\source\rte/sc_logging.h ****  * @return uint32_t: Number of cycles since the signal has been updated for the last time
 227:.\source\rte/sc_logging.h ****  */
 228:.\source\rte/sc_logging.h **** inline uint32_t RTE_SC_LOGGING_getAge( const SC_LOGGING_t * const signal )
 229:.\source\rte/sc_logging.h **** {
 230:.\source\rte/sc_logging.h ****    return signal->age;
 231:.\source\rte/sc_logging.h **** }
 232:.\source\rte/sc_logging.h **** 
 233:.\source\rte/sc_logging.h **** /**
 234:.\source\rte/sc_logging.h ****  * Should be called by application or driver if no new value can be provided.
 235:.\source\rte/sc_logging.h ****  * @param  SC_LOGGING_t * const signal: Pointer to the signal object
 236:.\source\rte/sc_logging.h ****  * @param uint32_t increment: incrementvalue, typically in [ms]
 237:.\source\rte/sc_logging.h ****  * @return void
 238:.\source\rte/sc_logging.h ****  */
 239:.\source\rte/sc_logging.h **** inline void RTE_SC_LOGGING_incAge(  SC_LOGGING_t * const signal , uint32_t increment)
 240:.\source\rte/sc_logging.h **** {
 241:.\source\rte/sc_logging.h **** 	   //Hack....
 242:.\source\rte/sc_logging.h **** 	   if ( 0xFFFF0000 > (signal->age + increment) )
 243:.\source\rte/sc_logging.h **** 	   {
 244:.\source\rte/sc_logging.h **** 	      signal->age += increment;
 245:.\source\rte/sc_logging.h **** 	   }
 246:.\source\rte/sc_logging.h **** }
 247:.\source\rte/sc_logging.h **** 
 248:.\source\rte/sc_logging.h **** 
 249:.\source\rte/sc_logging.h **** /**************************************************************************************************
 250:.\source\rte/sc_logging.h **** /* Application Data read/write Interface																			*/
 251:.\source\rte/sc_logging.h **** /**************************************************************************************************
 252:.\source\rte/sc_logging.h **** 
 253:.\source\rte/sc_logging.h **** /**
 254:.\source\rte/sc_logging.h ****  * Returns the current application value as pointer to the signal payload.
 255:.\source\rte/sc_logging.h ****  * Careful: This is not threadsafe!!!
 256:.\source\rte/sc_logging.h ****  *
 257:.\source\rte/sc_logging.h ****  * @param  SC_LOGGING_t * const signal: Pointer to the signal object
 258:.\source\rte/sc_logging.h ****  * @return sc_logging_data_t*: pointer to the current value of the application data buffer
 259:.\source\rte/sc_logging.h ****  *
 260:.\source\rte/sc_logging.h ****  **/
 261:.\source\rte/sc_logging.h **** inline SC_LOGGING_data_t* RTE_SC_LOGGING_getPtr( SC_LOGGING_t * const signal )
 262:.\source\rte/sc_logging.h **** {               
 263:.\source\rte/sc_logging.h ****    //Todo: Critical region cannot be protected using return values																						
 264:.\source\rte/sc_logging.h ****    return &(signal->value);                                                                        
 265:.\source\rte/sc_logging.h **** }
 266:.\source\rte/sc_logging.h **** 
 267:.\source\rte/sc_logging.h **** /**
 268:.\source\rte/sc_logging.h ****  * Returns the current application value of the passed signal instance.
 269:.\source\rte/sc_logging.h ****  *
 270:.\source\rte/sc_logging.h ****  * @param  SC_LOGGING_t * const signal: Pointer to the signal object
 271:.\source\rte/sc_logging.h ****  * @return sc_logging_data_t: current value of the application data buffer
 272:.\source\rte/sc_logging.h ****  *
 273:.\source\rte/sc_logging.h ****  **/
 274:.\source\rte/sc_logging.h **** inline SC_LOGGING_data_t RTE_SC_LOGGING_get( const SC_LOGGING_t * const signal )
 275:.\source\rte/sc_logging.h **** {               
 276:.\source\rte/sc_logging.h ****    //Todo: Critical region cannot be protected using return values																						
ARM GAS  C:\Users\zakis\AppData\Local\Temp\cc42xQ8h.s 			page 17


 277:.\source\rte/sc_logging.h ****    return signal->value;                                                                           
 278:.\source\rte/sc_logging.h **** }                                                                                                  
 279:.\source\rte/sc_logging.h ****                                                                                                    
 280:.\source\rte/sc_logging.h **** /**
 281:.\source\rte/sc_logging.h ****  * Returns the current application value of the passed signal instance threadsafe.
 282:.\source\rte/sc_logging.h ****  *
 283:.\source\rte/sc_logging.h ****  * @param  SC_LOGGING_t * const signal: Pointer to the signal object
 284:.\source\rte/sc_logging.h ****  * @param  SC_LOGGING_data_t* data: Pointer to the return data Pointer to the signal object
 285:.\source\rte/sc_logging.h ****  * @return RC_SUCCESS
 286:.\source\rte/sc_logging.h ****  *
 287:.\source\rte/sc_logging.h ****  **/
 288:.\source\rte/sc_logging.h **** inline RC_t RTE_SC_LOGGING_getThreadSafe( const SC_LOGGING_t * const signal, SC_LOGGING_data_t * co
 289:.\source\rte/sc_logging.h **** {    
 290:.\source\rte/sc_logging.h ****    if (TRUE == signal->pSigCfg->resourceActive) GetResource(signal->pSigCfg->resource);
 291:.\source\rte/sc_logging.h ****    *data = signal->value;
 292:.\source\rte/sc_logging.h ****    if (TRUE == signal->pSigCfg->resourceActive) ReleaseResource(signal->pSigCfg->resource);        
 293:.\source\rte/sc_logging.h **** 
 294:.\source\rte/sc_logging.h ****    return RC_SUCCESS;                                                                   
 295:.\source\rte/sc_logging.h ****    
 296:.\source\rte/sc_logging.h **** }                                                                                                  
 297:.\source\rte/sc_logging.h ****                                                                                                    
 298:.\source\rte/sc_logging.h **** /**
 299:.\source\rte/sc_logging.h ****  * Sets a new application value to the passed signal instance by passing the new value.
 300:.\source\rte/sc_logging.h ****  * The corresponding driver raw value will be calculated immediately by using the default conversio
 301:.\source\rte/sc_logging.h ****  * signal specific scaling function.
 302:.\source\rte/sc_logging.h ****  * The signal age will be set to 0 and the new status will be 'RTE_SIGNALSTATUS_VALID'.
 303:.\source\rte/sc_logging.h ****  *
 304:.\source\rte/sc_logging.h ****  * @param  SC_LOGGING_t * const signal: Pointer to the signal object
 305:.\source\rte/sc_logging.h ****  * @param  sc_logging_data_t const value: value for the application data buffer
 306:.\source\rte/sc_logging.h ****  * @return RC_t: standard return code, currently only RC_SUCCESS
 307:.\source\rte/sc_logging.h ****  *
 308:.\source\rte/sc_logging.h ****  **/
 309:.\source\rte/sc_logging.h **** inline RC_t RTE_SC_LOGGING_set(SC_LOGGING_t * const signal, const SC_LOGGING_data_t value  )
 310:.\source\rte/sc_logging.h **** {
 311:.\source\rte/sc_logging.h **** 
 312:.\source\rte/sc_logging.h ****    RC_t ret = RC_SUCCESS;
 313:.\source\rte/sc_logging.h ****    size_t taskNum=0;
 314:.\source\rte/sc_logging.h **** 
 315:.\source\rte/sc_logging.h **** 
 316:.\source\rte/sc_logging.h ****    if (TRUE == signal->pSigCfg->resourceActive) GetResource(signal->pSigCfg->resource);
 236              		.loc 3 316 0
 237 004c 1D4B     		ldr	r3, .L22+8
 238 004e 1B69     		ldr	r3, [r3, #16]
 239 0050 93F82020 		ldrb	r2, [r3, #32]	@ zero_extendqisi2
 240 0054 012A     		cmp	r2, #1
 241 0056 02D1     		bne	.L14
 242 0058 586A     		ldr	r0, [r3, #36]
 243 005a FFF7FEFF 		bl	EE_oo_GetResource
 244              	.LVL31:
 245              	.L14:
 317:.\source\rte/sc_logging.h ****    signal->value  = value;
 246              		.loc 3 317 0
 247 005e 194B     		ldr	r3, .L22+8
 248 0060 9DE80300 		ldmia	sp, {r0, r1}
 249 0064 83E80300 		stmia	r3, {r0, r1}
 318:.\source\rte/sc_logging.h ****    signal->age    = 0;
 250              		.loc 3 318 0
ARM GAS  C:\Users\zakis\AppData\Local\Temp\cc42xQ8h.s 			page 18


 251 0068 0022     		movs	r2, #0
 252 006a DA60     		str	r2, [r3, #12]
 319:.\source\rte/sc_logging.h ****    signal->status = RTE_SIGNALSTATUS_VALID;
 253              		.loc 3 319 0
 254 006c 0222     		movs	r2, #2
 255 006e 1A72     		strb	r2, [r3, #8]
 320:.\source\rte/sc_logging.h ****    if (TRUE == signal->pSigCfg->resourceActive) ReleaseResource(signal->pSigCfg->resource);
 256              		.loc 3 320 0
 257 0070 1B69     		ldr	r3, [r3, #16]
 258 0072 93F82020 		ldrb	r2, [r3, #32]	@ zero_extendqisi2
 259 0076 012A     		cmp	r2, #1
 260 0078 02D1     		bne	.L15
 261 007a 586A     		ldr	r0, [r3, #36]
 262 007c FFF7FEFF 		bl	EE_oo_ReleaseResource
 263              	.LVL32:
 264              	.L15:
 321:.\source\rte/sc_logging.h **** 
 322:.\source\rte/sc_logging.h ****    //Pointer to the Taskarray, containing the tasks receiving the onUpdate events
 323:.\source\rte/sc_logging.h ****    TaskTypeArray* pTaskArray = signal->pSigCfg->onUpdateTasks;
 265              		.loc 3 323 0
 266 0080 104B     		ldr	r3, .L22+8
 267 0082 1B69     		ldr	r3, [r3, #16]
 268 0084 5D69     		ldr	r5, [r3, #20]
 269              	.LVL33:
 324:.\source\rte/sc_logging.h **** 
 325:.\source\rte/sc_logging.h ****    if (0 != signal->pSigCfg->evOnUpdate && NULL != pTaskArray){
 270              		.loc 3 325 0
 271 0086 9B68     		ldr	r3, [r3, #8]
 272 0088 73B1     		cbz	r3, .L16
 273 008a 3DB9     		cbnz	r5, .L20
 274 008c 0CE0     		b	.L16
 275              	.LVL34:
 276              	.L18:
 277              	.LBB15:
 326:.\source\rte/sc_logging.h ****       for( taskNum=0 ; taskNum < signal->pSigCfg->onUpdateTaskCount ;taskNum++){
 327:.\source\rte/sc_logging.h **** 		  
 328:.\source\rte/sc_logging.h ****           TaskType task = (*pTaskArray)[taskNum];
 329:.\source\rte/sc_logging.h **** 	      SetEvent( task, signal->pSigCfg->evOnUpdate);
 278              		.loc 3 329 0
 279 008e 9968     		ldr	r1, [r3, #8]
 280 0090 55F82400 		ldr	r0, [r5, r4, lsl #2]
 281 0094 FFF7FEFF 		bl	EE_oo_SetEvent
 282              	.LVL35:
 283              	.LBE15:
 326:.\source\rte/sc_logging.h ****       for( taskNum=0 ; taskNum < signal->pSigCfg->onUpdateTaskCount ;taskNum++){
 284              		.loc 3 326 0
 285 0098 0134     		adds	r4, r4, #1
 286              	.LVL36:
 287 009a 00E0     		b	.L17
 288              	.LVL37:
 289              	.L20:
 325:.\source\rte/sc_logging.h ****       for( taskNum=0 ; taskNum < signal->pSigCfg->onUpdateTaskCount ;taskNum++){
 290              		.loc 3 325 0
 291 009c 0024     		movs	r4, #0
 292              	.LVL38:
 293              	.L17:
 326:.\source\rte/sc_logging.h ****       for( taskNum=0 ; taskNum < signal->pSigCfg->onUpdateTaskCount ;taskNum++){
ARM GAS  C:\Users\zakis\AppData\Local\Temp\cc42xQ8h.s 			page 19


 294              		.loc 3 326 0
 295 009e 094B     		ldr	r3, .L22+8
 296 00a0 1B69     		ldr	r3, [r3, #16]
 297 00a2 1A69     		ldr	r2, [r3, #16]
 298 00a4 9442     		cmp	r4, r2
 299 00a6 F2D3     		bcc	.L18
 300              	.LVL39:
 301              	.L16:
 302              	.LBE14:
 303              	.LBE13:
 304              	.LBB16:
 305              	.LBB17:
 330:.\source\rte/sc_logging.h ****       }
 331:.\source\rte/sc_logging.h ****    }
 332:.\source\rte/sc_logging.h **** 
 333:.\source\rte/sc_logging.h ****    return ret;
 334:.\source\rte/sc_logging.h **** }                                                                                                  
 335:.\source\rte/sc_logging.h ****                                                                                                    
 336:.\source\rte/sc_logging.h ****                                                                                                    
 337:.\source\rte/sc_logging.h **** /**************************************************************************************************
 338:.\source\rte/sc_logging.h **** /* Call functions to the connected drivers																			*/
 339:.\source\rte/sc_logging.h **** /**************************************************************************************************
 340:.\source\rte/sc_logging.h **** 
 341:.\source\rte/sc_logging.h ****                                                                                                    
 342:.\source\rte/sc_logging.h **** /**
 343:.\source\rte/sc_logging.h ****  *  Calls the connected driver interface to get a new value.
 344:.\source\rte/sc_logging.h ****  *
 345:.\source\rte/sc_logging.h ****  * @param SC_LOGGING_t * const signal: Pointer to the signal object
 346:.\source\rte/sc_logging.h ****  * @return  RC_t: Return value of the driver call
 347:.\source\rte/sc_logging.h ****  *
 348:.\source\rte/sc_logging.h ****  */
 349:.\source\rte/sc_logging.h **** inline RC_t RTE_SC_LOGGING_pullPort( SC_LOGGING_t * const signal )
 350:.\source\rte/sc_logging.h **** {                                                                                                  
 351:.\source\rte/sc_logging.h ****    RC_t ret = RC_SUCCESS;
 352:.\source\rte/sc_logging.h **** 
 353:.\source\rte/sc_logging.h ****                                                                                                    
 354:.\source\rte/sc_logging.h ****    if ( NULL != signal->pSigCfg->inDriver )
 355:.\source\rte/sc_logging.h ****    {
 356:.\source\rte/sc_logging.h **** 	  SC_LOGGING_data_t value = signal->value;
 357:.\source\rte/sc_logging.h ****       ret = signal->pSigCfg->inDriver(&value);
 358:.\source\rte/sc_logging.h ****                                                                                                    
 359:.\source\rte/sc_logging.h ****       if ( ret == RC_SUCCESS )                                                                     
 360:.\source\rte/sc_logging.h ****       {
 361:.\source\rte/sc_logging.h ****     	  //Critical Section
 362:.\source\rte/sc_logging.h ****     	  RTE_SC_LOGGING_set(signal, value);
 363:.\source\rte/sc_logging.h ****       }
 364:.\source\rte/sc_logging.h ****       else
 365:.\source\rte/sc_logging.h ****       {
 366:.\source\rte/sc_logging.h **** 		  //Signal is invalid. Error event (if present) will be fired
 367:.\source\rte/sc_logging.h **** 		  RTE_SC_LOGGING_setStatus(signal, RTE_SIGNALSTATUS_INVALID);
 368:.\source\rte/sc_logging.h ****       }
 369:.\source\rte/sc_logging.h **** 
 370:.\source\rte/sc_logging.h ****    }                                                                                               
 371:.\source\rte/sc_logging.h ****                                                                                                    
 372:.\source\rte/sc_logging.h ****    return ret;                                                                                     
 373:.\source\rte/sc_logging.h **** }                                                                                                  
 374:.\source\rte/sc_logging.h ****                                                                                                    
ARM GAS  C:\Users\zakis\AppData\Local\Temp\cc42xQ8h.s 			page 20


 375:.\source\rte/sc_logging.h **** /**
 376:.\source\rte/sc_logging.h ****  *  Calls the connected driver interfaces to send a value. Value will not be sent if it is INVALID.
 377:.\source\rte/sc_logging.h ****  *
 378:.\source\rte/sc_logging.h ****  * @param SC_LOGGING_t * const signal: Pointer to the signal object
 379:.\source\rte/sc_logging.h ****  * @return  RC_t: Return value of the driver call
 380:.\source\rte/sc_logging.h ****  *
 381:.\source\rte/sc_logging.h ****  **/
 382:.\source\rte/sc_logging.h **** inline RC_t RTE_SC_LOGGING_pushPort( const SC_LOGGING_t * const signal )
 383:.\source\rte/sc_logging.h **** {                                                                                                  
 384:.\source\rte/sc_logging.h ****    RC_t ret = RC_ERROR;
 385:.\source\rte/sc_logging.h **** 
 386:.\source\rte/sc_logging.h ****    if (RTE_SIGNALSTATUS_VALID == signal->status)
 306              		.loc 3 386 0
 307 00a8 064B     		ldr	r3, .L22+8
 308 00aa 1B7A     		ldrb	r3, [r3, #8]	@ zero_extendqisi2
 309 00ac 022B     		cmp	r3, #2
 310 00ae 03D1     		bne	.L13
 387:.\source\rte/sc_logging.h ****    {
 388:.\source\rte/sc_logging.h **** 	   ret = signal->pSigCfg->outDriver(&(signal->value));
 311              		.loc 3 388 0
 312 00b0 0448     		ldr	r0, .L22+8
 313 00b2 0369     		ldr	r3, [r0, #16]
 314 00b4 5B68     		ldr	r3, [r3, #4]
 315 00b6 9847     		blx	r3
 316              	.LVL40:
 317              	.L13:
 318              	.LBE17:
 319              	.LBE16:
 110:source\asw/swc_logging.c ****     
 111:source\asw/swc_logging.c ****     RTE_SC_LOGGING_set(&SO_LOGGING_signal, log);
 112:source\asw/swc_logging.c ****     RC_t error = RTE_SC_LOGGING_pushPort(&SO_LOGGING_signal);
 113:source\asw/swc_logging.c ****     
 114:source\asw/swc_logging.c **** //    RTE_SC_LOGGING_set(SC_
 115:source\asw/swc_logging.c ****     
 116:source\asw/swc_logging.c ****     /* USER CODE END LOGGING_logging_run */
 117:source\asw/swc_logging.c **** }
 320              		.loc 1 117 0
 321 00b8 21B0     		add	sp, sp, #132
 322              		.cfi_def_cfa_offset 12
 323              		@ sp needed
 324 00ba 30BD     		pop	{r4, r5, pc}
 325              	.L23:
 326              		.align	2
 327              	.L22:
 328 00bc 00000000 		.word	SO_JOYSTICK_signal
 329 00c0 00000000 		.word	.LC0
 330 00c4 00000000 		.word	SO_LOGGING_signal
 331              		.cfi_endproc
 332              	.LFE168:
 333              		.size	LOGGING_logging_run, .-LOGGING_logging_run
 334              		.section	.rodata.str1.4,"aMS",%progbits,1
 335              		.align	2
 336              	.LC0:
 337 0000 0A00     		.ascii	"\012\000"
 338              		.text
 339              	.Letext0:
 340              		.file 4 "c:\\program files (x86)\\cypress\\psoc creator\\4.4\\psoc creator\\import\\gnu\\arm\\5.4.
ARM GAS  C:\Users\zakis\AppData\Local\Temp\cc42xQ8h.s 			page 21


 341              		.file 5 "c:\\program files (x86)\\cypress\\psoc creator\\4.4\\psoc creator\\import\\gnu\\arm\\5.4.
 342              		.file 6 "c:\\program files (x86)\\cypress\\psoc creator\\4.4\\psoc creator\\import\\gnu\\arm\\5.4.
 343              		.file 7 "Generated_Source\\PSoC5/ErikaOS_common_ee_types.inc"
 344              		.file 8 "Generated_Source\\PSoC5/ErikaOS_cortex_mx_ee_cpu.inc"
 345              		.file 9 "Generated_Source\\PSoC5/ErikaOS_ee_oo_common.inc"
 346              		.file 10 ".\\source\\bsw/global.h"
 347              		.file 11 ".\\source\\rte/rte_types.h"
 348              		.file 12 ".\\source\\rte/rte.h"
 349              		.file 13 ".\\source\\rte/sc_joystick_type.h"
 350              		.file 14 ".\\source\\rte/sc_logging_type.h"
 351              		.file 15 "Generated_Source\\PSoC5/ErikaOS_ee_oo_intfunc.inc"
 352              		.file 16 "Generated_Source\\PSoC5/ErikaOS_cortex_mx_ee_context.inc"
 353              		.file 17 "Generated_Source\\PSoC5/ErikaOS_common_ee_primitives.inc"
 354              		.file 18 "Generated_Source\\PSoC5/core_cm3.h"
 355              		.file 19 ".\\source\\rte/sp_common.h"
 356              		.file 20 "Generated_Source\\PSoC5/ErikaOS_ee_oo_kernel.inc"
 357              		.file 21 "c:\\program files (x86)\\cypress\\psoc creator\\4.4\\psoc creator\\import\\gnu\\arm\\5.4
 358              		.file 22 "<built-in>"