ARM GAS  C:\Users\zakis\AppData\Local\Temp\ccoajMTf.s 			page 1


   1              		.syntax unified
   2              		.cpu cortex-m3
   3              		.fpu softvfp
   4              		.eabi_attribute 20, 1
   5              		.eabi_attribute 21, 1
   6              		.eabi_attribute 23, 3
   7              		.eabi_attribute 24, 1
   8              		.eabi_attribute 25, 1
   9              		.eabi_attribute 26, 1
  10              		.eabi_attribute 30, 1
  11              		.eabi_attribute 34, 1
  12              		.eabi_attribute 18, 4
  13              		.thumb
  14              		.syntax unified
  15              		.file	"watchdog.c"
  16              		.text
  17              	.Ltext0:
  18              		.cfi_sections	.debug_frame
  19              		.section	.text.WD_Start,"ax",%progbits
  20              		.align	2
  21              		.global	WD_Start
  22              		.thumb
  23              		.thumb_func
  24              		.type	WD_Start, %function
  25              	WD_Start:
  26              	.LFB110:
  27              		.file 1 "source\\asw\\watchdog.c"
   1:source\asw/watchdog.c **** /**
   2:source\asw/watchdog.c **** * \file uart.c
   3:source\asw/watchdog.c **** * \author P. Fromm
   4:source\asw/watchdog.c **** * \date 8.12.19
   5:source\asw/watchdog.c **** *
   6:source\asw/watchdog.c **** * \brief UART wrapper
   7:source\asw/watchdog.c **** *
   8:source\asw/watchdog.c **** * \copyright Copyright ©2016
   9:source\asw/watchdog.c **** * Department of electrical engineering and information technology, Hochschule Darmstadt - Universit
  10:source\asw/watchdog.c **** * Permission to use, copy, modify, and distribute this software and its documentation for education
  11:source\asw/watchdog.c **** * (unless permitted by h_da) and official h_da projects, is hereby granted for enrolled students of
  12:source\asw/watchdog.c **** * this paragraph and the following paragraph appear in all copies, modifications, and distributions
  13:source\asw/watchdog.c **** * Contact Prof.Dr.-Ing. Peter Fromm, peter.fromm@h-da.de, Birkenweg 8 64295 Darmstadt - GERMANY for
  14:source\asw/watchdog.c **** *
  15:source\asw/watchdog.c **** * \warning This software is a PROTOTYPE version and is not designed or intended for use in producti
  16:source\asw/watchdog.c **** * The user represents and warrants that it will NOT use or redistribute the Software for such purpo
  17:source\asw/watchdog.c **** * This prototype is for research purposes only. This software is provided "AS IS," without a warran
  18:source\asw/watchdog.c **** */
  19:source\asw/watchdog.c **** 
  20:source\asw/watchdog.c **** /*****************************************************************************/
  21:source\asw/watchdog.c **** /* Include files                                                             */
  22:source\asw/watchdog.c **** /*****************************************************************************/
  23:source\asw/watchdog.c **** 
  24:source\asw/watchdog.c **** #include "project.h"
  25:source\asw/watchdog.c **** #include "watchdog.h"
  26:source\asw/watchdog.c **** 
  27:source\asw/watchdog.c **** /*****************************************************************************/
  28:source\asw/watchdog.c **** /* Local pre-processor symbols/macros ('#define')                            */
  29:source\asw/watchdog.c **** /*****************************************************************************/
  30:source\asw/watchdog.c **** 
ARM GAS  C:\Users\zakis\AppData\Local\Temp\ccoajMTf.s 			page 2


  31:source\asw/watchdog.c **** /*****************************************************************************/
  32:source\asw/watchdog.c **** /* Global variable definitions (declared in header file with 'extern')       */
  33:source\asw/watchdog.c **** /*****************************************************************************/
  34:source\asw/watchdog.c **** 
  35:source\asw/watchdog.c **** 
  36:source\asw/watchdog.c **** 
  37:source\asw/watchdog.c **** /*****************************************************************************/
  38:source\asw/watchdog.c **** /* Local type definitions ('typedef')                                        */
  39:source\asw/watchdog.c **** /*****************************************************************************/
  40:source\asw/watchdog.c **** 
  41:source\asw/watchdog.c **** //WDT_Bitfields wdtBitfields = {0};
  42:source\asw/watchdog.c **** 
  43:source\asw/watchdog.c **** uint8_t wdtBitfields[NUMBER_OF_WATCHDOGS] = {0};
  44:source\asw/watchdog.c **** 
  45:source\asw/watchdog.c **** /*****************************************************************************/
  46:source\asw/watchdog.c **** /* Local variable definitions ('static')                                     */
  47:source\asw/watchdog.c **** /*****************************************************************************/
  48:source\asw/watchdog.c **** 
  49:source\asw/watchdog.c **** 
  50:source\asw/watchdog.c **** 
  51:source\asw/watchdog.c **** /*****************************************************************************/
  52:source\asw/watchdog.c **** /* Local function prototypes ('static')                                      */
  53:source\asw/watchdog.c **** /*****************************************************************************/
  54:source\asw/watchdog.c **** 
  55:source\asw/watchdog.c **** 
  56:source\asw/watchdog.c **** /*****************************************************************************/
  57:source\asw/watchdog.c **** /* Function implementation - global ('extern') and local ('static')          */
  58:source\asw/watchdog.c **** /*****************************************************************************/
  59:source\asw/watchdog.c **** RC_t WD_Start(WDT_TimeOut_t timeout){
  28              		.loc 1 59 0
  29              		.cfi_startproc
  30              		@ args = 0, pretend = 0, frame = 0
  31              		@ frame_needed = 0, uses_anonymous_args = 0
  32              	.LVL0:
  33 0000 08B5     		push	{r3, lr}
  34              		.cfi_def_cfa_offset 8
  35              		.cfi_offset 3, -8
  36              		.cfi_offset 14, -4
  60:source\asw/watchdog.c ****     
  61:source\asw/watchdog.c ****     switch (timeout){
  37              		.loc 1 61 0
  38 0002 0328     		cmp	r0, #3
  39 0004 16D8     		bhi	.L2
  40 0006 DFE800F0 		tbb	[pc, r0]
  41              	.L4:
  42 000a 02       		.byte	(.L3-.L4)/2
  43 000b 07       		.byte	(.L5-.L4)/2
  44 000c 0C       		.byte	(.L6-.L4)/2
  45 000d 11       		.byte	(.L7-.L4)/2
  46              		.p2align 1
  47              	.L3:
  62:source\asw/watchdog.c ****         case PERIOD_1_SEC:
  63:source\asw/watchdog.c ****             CyWdtStart(CYWDT_128_TICKS, 0);
  48              		.loc 1 63 0
  49 000e 0021     		movs	r1, #0
  50 0010 0220     		movs	r0, #2
  51              	.LVL1:
ARM GAS  C:\Users\zakis\AppData\Local\Temp\ccoajMTf.s 			page 3


  52 0012 FFF7FEFF 		bl	CyWdtStart
  53              	.LVL2:
  64:source\asw/watchdog.c ****             break;
  54              		.loc 1 64 0
  55 0016 0DE0     		b	.L2
  56              	.LVL3:
  57              	.L5:
  65:source\asw/watchdog.c ****         case PERIOD_2_SEC:
  66:source\asw/watchdog.c ****             CyWdtStart(CYWDT_1024_TICKS, 0);
  58              		.loc 1 66 0
  59 0018 0021     		movs	r1, #0
  60 001a 0320     		movs	r0, #3
  61              	.LVL4:
  62 001c FFF7FEFF 		bl	CyWdtStart
  63              	.LVL5:
  67:source\asw/watchdog.c ****             break;
  64              		.loc 1 67 0
  65 0020 08E0     		b	.L2
  66              	.LVL6:
  67              	.L6:
  68:source\asw/watchdog.c ****         case PERIOD_X_SEC:
  69:source\asw/watchdog.c ****             CyWdtStart(CYWDT_16_TICKS, 0);
  68              		.loc 1 69 0
  69 0022 0021     		movs	r1, #0
  70 0024 0120     		movs	r0, #1
  71              	.LVL7:
  72 0026 FFF7FEFF 		bl	CyWdtStart
  73              	.LVL8:
  70:source\asw/watchdog.c ****             break;
  74              		.loc 1 70 0
  75 002a 03E0     		b	.L2
  76              	.LVL9:
  77              	.L7:
  71:source\asw/watchdog.c ****         case PERIOD_Y_SEC:
  72:source\asw/watchdog.c ****             CyWdtStart(CYWDT_2_TICKS, 0);
  78              		.loc 1 72 0
  79 002c 0021     		movs	r1, #0
  80 002e 0846     		mov	r0, r1
  81              	.LVL10:
  82 0030 FFF7FEFF 		bl	CyWdtStart
  83              	.LVL11:
  84              	.L2:
  73:source\asw/watchdog.c ****             break;
  74:source\asw/watchdog.c ****     }
  75:source\asw/watchdog.c ****         
  76:source\asw/watchdog.c ****     return RC_SUCCESS;
  77:source\asw/watchdog.c **** }
  85              		.loc 1 77 0
  86 0034 0020     		movs	r0, #0
  87 0036 08BD     		pop	{r3, pc}
  88              		.cfi_endproc
  89              	.LFE110:
  90              		.size	WD_Start, .-WD_Start
  91              		.section	.text.WD_Trigger,"ax",%progbits
  92              		.align	2
  93              		.global	WD_Trigger
  94              		.thumb
ARM GAS  C:\Users\zakis\AppData\Local\Temp\ccoajMTf.s 			page 4


  95              		.thumb_func
  96              		.type	WD_Trigger, %function
  97              	WD_Trigger:
  98              	.LFB111:
  78:source\asw/watchdog.c **** 
  79:source\asw/watchdog.c **** RC_t WD_Trigger(){
  99              		.loc 1 79 0
 100              		.cfi_startproc
 101              		@ args = 0, pretend = 0, frame = 0
 102              		@ frame_needed = 0, uses_anonymous_args = 0
 103 0000 08B5     		push	{r3, lr}
 104              		.cfi_def_cfa_offset 8
 105              		.cfi_offset 3, -8
 106              		.cfi_offset 14, -4
  80:source\asw/watchdog.c ****     CyWdtClear();
 107              		.loc 1 80 0
 108 0002 FFF7FEFF 		bl	CyWdtClear
 109              	.LVL12:
  81:source\asw/watchdog.c ****     return RC_SUCCESS;
  82:source\asw/watchdog.c **** }
 110              		.loc 1 82 0
 111 0006 0020     		movs	r0, #0
 112 0008 08BD     		pop	{r3, pc}
 113              		.cfi_endproc
 114              	.LFE111:
 115              		.size	WD_Trigger, .-WD_Trigger
 116 000a 00BF     		.section	.text.WD_CheckResetBit,"ax",%progbits
 117              		.align	2
 118              		.global	WD_CheckResetBit
 119              		.thumb
 120              		.thumb_func
 121              		.type	WD_CheckResetBit, %function
 122              	WD_CheckResetBit:
 123              	.LFB112:
  83:source\asw/watchdog.c **** 
  84:source\asw/watchdog.c **** boolean_t WD_CheckResetBit() {
 124              		.loc 1 84 0
 125              		.cfi_startproc
 126              		@ args = 0, pretend = 0, frame = 0
 127              		@ frame_needed = 0, uses_anonymous_args = 0
 128              		@ link register save eliminated.
  85:source\asw/watchdog.c ****     
  86:source\asw/watchdog.c ****     if (CyResetStatus & CY_RESET_WD){
 129              		.loc 1 86 0
 130 0000 044B     		ldr	r3, .L13
 131 0002 1B78     		ldrb	r3, [r3]	@ zero_extendqisi2
 132 0004 03F00803 		and	r3, r3, #8
 133 0008 03F0FF00 		and	r0, r3, #255
 134 000c 03B1     		cbz	r3, .L12
  87:source\asw/watchdog.c ****         return TRUE;
 135              		.loc 1 87 0
 136 000e 0120     		movs	r0, #1
 137              	.L12:
  88:source\asw/watchdog.c ****     } else {
  89:source\asw/watchdog.c ****         return FALSE;
  90:source\asw/watchdog.c ****     }
  91:source\asw/watchdog.c **** }
ARM GAS  C:\Users\zakis\AppData\Local\Temp\ccoajMTf.s 			page 5


 138              		.loc 1 91 0
 139 0010 7047     		bx	lr
 140              	.L14:
 141 0012 00BF     		.align	2
 142              	.L13:
 143 0014 00000000 		.word	CyResetStatus
 144              		.cfi_endproc
 145              	.LFE112:
 146              		.size	WD_CheckResetBit, .-WD_CheckResetBit
 147              		.section	.text.WD_Alive,"ax",%progbits
 148              		.align	2
 149              		.global	WD_Alive
 150              		.thumb
 151              		.thumb_func
 152              		.type	WD_Alive, %function
 153              	WD_Alive:
 154              	.LFB113:
  92:source\asw/watchdog.c **** 
  93:source\asw/watchdog.c **** RC_t WD_Alive(WDT_Bits bit){
 155              		.loc 1 93 0
 156              		.cfi_startproc
 157              		@ args = 0, pretend = 0, frame = 0
 158              		@ frame_needed = 0, uses_anonymous_args = 0
 159              		@ link register save eliminated.
 160              	.LVL13:
  94:source\asw/watchdog.c ****     
  95:source\asw/watchdog.c **** //    switch (bit){
  96:source\asw/watchdog.c **** //        case WATCHDOG_RUN_CALCCONTROL:
  97:source\asw/watchdog.c **** //            wdtBitfields.m_Bit_CalcControl = 1;
  98:source\asw/watchdog.c **** //            break;
  99:source\asw/watchdog.c **** //        case WATCHDOG_RUN_LOGGING:
 100:source\asw/watchdog.c **** //            wdtBitfields.m_Bit_Logging = 1;
 101:source\asw/watchdog.c **** //            break;
 102:source\asw/watchdog.c **** //        case WATCHDOG_RUN_READJOYSTICK:
 103:source\asw/watchdog.c **** //            wdtBitfields.m_BitReadJoystick = 1;
 104:source\asw/watchdog.c **** //            break;
 105:source\asw/watchdog.c **** //        case WATCHDOG_RUN_SETBRAKELIGHT:
 106:source\asw/watchdog.c **** //            wdtBitfields.m_Bit_SetBrakelight = 1;
 107:source\asw/watchdog.c **** //            break;
 108:source\asw/watchdog.c **** //        case WATCHDOG_RUN_SETENGINE:
 109:source\asw/watchdog.c **** //            wdtBitfields.m_Bit_SetEngine = 1;
 110:source\asw/watchdog.c **** //            break;
 111:source\asw/watchdog.c **** //        case WATCHDOG_RUN_SYSTEM:
 112:source\asw/watchdog.c **** //            wdtBitfields.m_Bit_System = 1;
 113:source\asw/watchdog.c **** //            break;
 114:source\asw/watchdog.c **** //    }
 115:source\asw/watchdog.c ****     
 116:source\asw/watchdog.c ****     
 117:source\asw/watchdog.c ****     wdtBitfields[bit] = 1;
 161              		.loc 1 117 0
 162 0000 0122     		movs	r2, #1
 163 0002 024B     		ldr	r3, .L16
 164 0004 1A54     		strb	r2, [r3, r0]
 118:source\asw/watchdog.c ****     return RC_SUCCESS;
 119:source\asw/watchdog.c ****     
 120:source\asw/watchdog.c ****     
 121:source\asw/watchdog.c **** }
ARM GAS  C:\Users\zakis\AppData\Local\Temp\ccoajMTf.s 			page 6


 165              		.loc 1 121 0
 166 0006 0020     		movs	r0, #0
 167              	.LVL14:
 168 0008 7047     		bx	lr
 169              	.L17:
 170 000a 00BF     		.align	2
 171              	.L16:
 172 000c 00000000 		.word	.LANCHOR0
 173              		.cfi_endproc
 174              	.LFE113:
 175              		.size	WD_Alive, .-WD_Alive
 176              		.section	.text.WD_IsError,"ax",%progbits
 177              		.align	2
 178              		.global	WD_IsError
 179              		.thumb
 180              		.thumb_func
 181              		.type	WD_IsError, %function
 182              	WD_IsError:
 183              	.LFB114:
 122:source\asw/watchdog.c **** 
 123:source\asw/watchdog.c **** boolean_t WD_IsError(){
 184              		.loc 1 123 0
 185              		.cfi_startproc
 186              		@ args = 0, pretend = 0, frame = 0
 187              		@ frame_needed = 0, uses_anonymous_args = 0
 188              		@ link register save eliminated.
 189              	.LVL15:
 190              	.LBB2:
 124:source\asw/watchdog.c ****     
 125:source\asw/watchdog.c ****     for (uint8_t i = 0; i < NUMBER_OF_WATCHDOGS; ++i){
 191              		.loc 1 125 0
 192 0000 0023     		movs	r3, #0
 193 0002 04E0     		b	.L19
 194              	.LVL16:
 195              	.L21:
 126:source\asw/watchdog.c ****         if (wdtBitfields[i] == 0){
 196              		.loc 1 126 0
 197 0004 054A     		ldr	r2, .L23
 198 0006 D25C     		ldrb	r2, [r2, r3]	@ zero_extendqisi2
 199 0008 2AB1     		cbz	r2, .L22
 125:source\asw/watchdog.c ****         if (wdtBitfields[i] == 0){
 200              		.loc 1 125 0 discriminator 2
 201 000a 0133     		adds	r3, r3, #1
 202              	.LVL17:
 203 000c DBB2     		uxtb	r3, r3
 204              	.LVL18:
 205              	.L19:
 125:source\asw/watchdog.c ****         if (wdtBitfields[i] == 0){
 206              		.loc 1 125 0 is_stmt 0 discriminator 1
 207 000e 052B     		cmp	r3, #5
 208 0010 F8D9     		bls	.L21
 209              	.LBE2:
 127:source\asw/watchdog.c ****             return TRUE;
 128:source\asw/watchdog.c ****         
 129:source\asw/watchdog.c ****         }
 130:source\asw/watchdog.c ****     
 131:source\asw/watchdog.c ****     }
ARM GAS  C:\Users\zakis\AppData\Local\Temp\ccoajMTf.s 			page 7


 132:source\asw/watchdog.c ****     return FALSE;
 210              		.loc 1 132 0 is_stmt 1
 211 0012 0020     		movs	r0, #0
 212              	.LBB3:
 213 0014 7047     		bx	lr
 214              	.L22:
 127:source\asw/watchdog.c ****             return TRUE;
 215              		.loc 1 127 0
 216 0016 0120     		movs	r0, #1
 217              	.LBE3:
 133:source\asw/watchdog.c **** 
 134:source\asw/watchdog.c **** }
 218              		.loc 1 134 0
 219 0018 7047     		bx	lr
 220              	.L24:
 221 001a 00BF     		.align	2
 222              	.L23:
 223 001c 00000000 		.word	.LANCHOR0
 224              		.cfi_endproc
 225              	.LFE114:
 226              		.size	WD_IsError, .-WD_IsError
 227              		.section	.text.WD_resetState,"ax",%progbits
 228              		.align	2
 229              		.global	WD_resetState
 230              		.thumb
 231              		.thumb_func
 232              		.type	WD_resetState, %function
 233              	WD_resetState:
 234              	.LFB115:
 135:source\asw/watchdog.c **** 
 136:source\asw/watchdog.c **** RC_t WD_resetState(){
 235              		.loc 1 136 0
 236              		.cfi_startproc
 237              		@ args = 0, pretend = 0, frame = 0
 238              		@ frame_needed = 0, uses_anonymous_args = 0
 239              		@ link register save eliminated.
 240              	.LVL19:
 241              	.LBB4:
 137:source\asw/watchdog.c ****     for (uint8_t i = 0; i < NUMBER_OF_WATCHDOGS; ++i){
 242              		.loc 1 137 0
 243 0000 0023     		movs	r3, #0
 244 0002 04E0     		b	.L26
 245              	.LVL20:
 246              	.L27:
 138:source\asw/watchdog.c ****         wdtBitfields[i] = 0;
 247              		.loc 1 138 0 discriminator 3
 248 0004 0021     		movs	r1, #0
 249 0006 044A     		ldr	r2, .L28
 250 0008 D154     		strb	r1, [r2, r3]
 137:source\asw/watchdog.c ****     for (uint8_t i = 0; i < NUMBER_OF_WATCHDOGS; ++i){
 251              		.loc 1 137 0 discriminator 3
 252 000a 0133     		adds	r3, r3, #1
 253              	.LVL21:
 254 000c DBB2     		uxtb	r3, r3
 255              	.LVL22:
 256              	.L26:
 137:source\asw/watchdog.c ****     for (uint8_t i = 0; i < NUMBER_OF_WATCHDOGS; ++i){
ARM GAS  C:\Users\zakis\AppData\Local\Temp\ccoajMTf.s 			page 8


 257              		.loc 1 137 0 is_stmt 0 discriminator 1
 258 000e 052B     		cmp	r3, #5
 259 0010 F8D9     		bls	.L27
 260              	.LBE4:
 139:source\asw/watchdog.c ****     }
 140:source\asw/watchdog.c ****     
 141:source\asw/watchdog.c ****     return RC_SUCCESS;
 142:source\asw/watchdog.c **** }
 261              		.loc 1 142 0 is_stmt 1
 262 0012 0020     		movs	r0, #0
 263 0014 7047     		bx	lr
 264              	.L29:
 265 0016 00BF     		.align	2
 266              	.L28:
 267 0018 00000000 		.word	.LANCHOR0
 268              		.cfi_endproc
 269              	.LFE115:
 270              		.size	WD_resetState, .-WD_resetState
 271              		.global	wdtBitfields
 272              		.bss
 273              		.align	2
 274              		.set	.LANCHOR0,. + 0
 275              		.type	wdtBitfields, %object
 276              		.size	wdtBitfields, 6
 277              	wdtBitfields:
 278 0000 00000000 		.space	6
 278      0000
 279              		.text
 280              	.Letext0:
 281              		.file 2 "c:\\program files (x86)\\cypress\\psoc creator\\4.4\\psoc creator\\import\\gnu\\arm\\5.4.
 282              		.file 3 "c:\\program files (x86)\\cypress\\psoc creator\\4.4\\psoc creator\\import\\gnu\\arm\\5.4.
 283              		.file 4 "Generated_Source\\PSoC5/cytypes.h"
 284              		.file 5 "Generated_Source\\PSoC5/ErikaOS_common_ee_types.inc"
 285              		.file 6 "Generated_Source\\PSoC5/ErikaOS_cortex_mx_ee_cpu.inc"
 286              		.file 7 ".\\source\\bsw/global.h"
 287              		.file 8 "source\\asw\\watchdog.h"
 288              		.file 9 "Generated_Source\\PSoC5/ErikaOS_ee_oo_intfunc.inc"
 289              		.file 10 "Generated_Source\\PSoC5/ErikaOS_cortex_mx_ee_context.inc"
 290              		.file 11 "Generated_Source\\PSoC5/ErikaOS_common_ee_primitives.inc"
 291              		.file 12 "Generated_Source\\PSoC5/CyLib.h"
 292              		.file 13 "Generated_Source\\PSoC5/core_cm3.h"